(lp0
(lp1
ccopy_reg
_reconstructor
p2
(clibPoint
Point_C
p3
c__builtin__
object
p4
Ntp5
Rp6
(dp7
S'y'
p8
F-5.0
sS'x'
p9
F51.0
sS'mu'
p10
I1
sS'val'
p11
F101535.98187709917
sbag2
(g3
g4
Ntp12
Rp13
(dp14
g8
F-5.0
sg9
F50.0
sg10
I1
sg11
F101535.9738303837
sbag2
(g3
g4
Ntp15
Rp16
(dp17
g8
F-5.0
sg9
F49.0
sg10
I1
sg11
F101535.96512008994
sbag2
(g3
g4
Ntp18
Rp19
(dp20
g8
F-5.0
sg9
F48.0
sg10
I1
sg11
F101535.95571875077
sbag2
(g3
g4
Ntp21
Rp22
(dp23
g8
F-5.0
sg9
F47.0
sg10
I1
sg11
F101535.94559842432
sbag2
(g3
g4
Ntp24
Rp25
(dp26
g8
F-5.0
sg9
F46.0
sg10
I1
sg11
F101535.93473075869
sbag2
(g3
g4
Ntp27
Rp28
(dp29
g8
F-5.0
sg9
F45.0
sg10
I1
sg11
F101535.92308706652
sbag2
(g3
g4
Ntp30
Rp31
(dp32
g8
F-5.0
sg9
F44.0
sg10
I1
sg11
F101535.91063841047
sbag2
(g3
g4
Ntp33
Rp34
(dp35
g8
F-5.0
sg9
F43.0
sg10
I1
sg11
F101535.89735569946
sbag2
(g3
g4
Ntp36
Rp37
(dp38
g8
F-5.0
sg9
F42.0
sg10
I1
sg11
F101535.88320979734
sbag2
(g3
g4
Ntp39
Rp40
(dp41
g8
F-5.0
sg9
F41.0
sg10
I1
sg11
F101535.86817164364
sbag2
(g3
g4
Ntp42
Rp43
(dp44
g8
F-5.0
sg9
F40.0
sg10
I1
sg11
F101535.85221238795
sbaa(lp45
g2
(g3
g4
Ntp46
Rp47
(dp48
g8
F-3.6363636363636367
sg9
F51.0
sg10
I1
sg11
F101536.01700578434
sbag2
(g3
g4
Ntp49
Rp50
(dp51
g8
F-3.6363636363636367
sg9
F50.0
sg10
I1
sg11
F101536.00940431906
sbag2
(g3
g4
Ntp52
Rp53
(dp54
g8
F-3.6363636363636367
sg9
F49.0
sg10
I1
sg11
F101536.00112402451
sbag2
(g3
g4
Ntp55
Rp56
(dp57
g8
F-3.6363636363636367
sg9
F48.0
sg10
I1
sg11
F101535.9921352598
sbag2
(g3
g4
Ntp58
Rp59
(dp60
g8
F-3.6363636363636367
sg9
F47.0
sg10
I1
sg11
F101535.98240776794
sbag2
(g3
g4
Ntp61
Rp62
(dp63
g8
F-3.6363636363636367
sg9
F46.0
sg10
I1
sg11
F101535.97191073821
sbag2
(g3
g4
Ntp64
Rp65
(dp66
g8
F-3.6363636363636367
sg9
F45.0
sg10
I1
sg11
F101535.96061287905
sbag2
(g3
g4
Ntp67
Rp68
(dp69
g8
F-3.6363636363636367
sg9
F44.0
sg10
I1
sg11
F101535.94848250294
sbag2
(g3
g4
Ntp70
Rp71
(dp72
g8
F-3.6363636363636367
sg9
F43.0
sg10
I1
sg11
F101535.93548762324
sbag2
(g3
g4
Ntp73
Rp74
(dp75
g8
F-3.6363636363636367
sg9
F42.0
sg10
I1
sg11
F101535.92159606492
sbag2
(g3
g4
Ntp76
Rp77
(dp78
g8
F-3.6363636363636367
sg9
F41.0
sg10
I1
sg11
F101535.90677558923
sbag2
(g3
g4
Ntp79
Rp80
(dp81
g8
F-3.6363636363636367
sg9
F40.0
sg10
I1
sg11
F101535.8909940331
sbaa(lp82
g2
(g3
g4
Ntp83
Rp84
(dp85
g8
F-2.272727272727273
sg9
F51.0
sg10
I1
sg11
F101536.05334456834
sbag2
(g3
g4
Ntp86
Rp87
(dp88
g8
F-2.272727272727273
sg9
F50.0
sg10
I1
sg11
F101536.04624232238
sbag2
(g3
g4
Ntp89
Rp90
(dp91
g8
F-2.272727272727273
sg9
F49.0
sg10
I1
sg11
F101536.03844724537
sbag2
(g3
g4
Ntp92
Rp93
(dp94
g8
F-2.272727272727273
sg9
F48.0
sg10
I1
sg11
F101536.02992742587
sbag2
(g3
g4
Ntp95
Rp96
(dp97
g8
F-2.272727272727273
sg9
F47.0
sg10
I1
sg11
F101536.02065017649
sbag2
(g3
g4
Ntp98
Rp99
(dp100
g8
F-2.272727272727273
sg9
F46.0
sg10
I1
sg11
F101536.0105820923
sbag2
(g3
g4
Ntp101
Rp102
(dp103
g8
F-2.272727272727273
sg9
F45.0
sg10
I1
sg11
F101535.99968912054
sbag2
(g3
g4
Ntp104
Rp105
(dp106
g8
F-2.272727272727273
sg9
F44.0
sg10
I1
sg11
F101535.98793664301
sbag2
(g3
g4
Ntp107
Rp108
(dp109
g8
F-2.272727272727273
sg9
F43.0
sg10
I1
sg11
F101535.97528957244
sbag2
(g3
g4
Ntp110
Rp111
(dp112
g8
F-2.272727272727273
sg9
F42.0
sg10
I1
sg11
F101535.96171246357
sbag2
(g3
g4
Ntp113
Rp114
(dp115
g8
F-2.272727272727273
sg9
F41.0
sg10
I1
sg11
F101535.94716964
sbag2
(g3
g4
Ntp116
Rp117
(dp118
g8
F-2.272727272727273
sg9
F40.0
sg10
I1
sg11
F101535.93162533776
sbaa(lp119
g2
(g3
g4
Ntp120
Rp121
(dp122
g8
F-0.9090909090909092
sg9
F51.0
sg10
I1
sg11
F101536.09091560857
sbag2
(g3
g4
Ntp123
Rp124
(dp125
g8
F-0.9090909090909092
sg9
F50.0
sg10
I1
sg11
F101536.08437048976
sbag2
(g3
g4
Ntp126
Rp127
(dp128
g8
F-0.9090909090909092
sg9
F49.0
sg10
I1
sg11
F101536.07712007621
sbag2
(g3
g4
Ntp129
Rp130
(dp131
g8
F-0.9090909090909092
sg9
F48.0
sg10
I1
sg11
F101536.06913009792
sbag2
(g3
g4
Ntp132
Rp133
(dp134
g8
F-0.9090909090909092
sg9
F47.0
sg10
I1
sg11
F101536.06036532964
sbag2
(g3
g4
Ntp135
Rp136
(dp137
g8
F-0.9090909090909092
sg9
F46.0
sg10
I1
sg11
F101536.05078964293
sbag2
(g3
g4
Ntp138
Rp139
(dp140
g8
F-0.9090909090909092
sg9
F45.0
sg10
I1
sg11
F101536.0403660708
sbag2
(g3
g4
Ntp141
Rp142
(dp143
g8
F-0.9090909090909092
sg9
F44.0
sg10
I1
sg11
F101536.02905688601
sbag2
(g3
g4
Ntp144
Rp145
(dp146
g8
F-0.9090909090909092
sg9
F43.0
sg10
I1
sg11
F101536.0168236946
sbag2
(g3
g4
Ntp147
Rp148
(dp149
g8
F-0.9090909090909092
sg9
F42.0
sg10
I1
sg11
F101536.00362754546
sbag2
(g3
g4
Ntp150
Rp151
(dp152
g8
F-0.9090909090909092
sg9
F41.0
sg10
I1
sg11
F101535.98942905758
sbag2
(g3
g4
Ntp153
Rp154
(dp155
g8
F-0.9090909090909092
sg9
F40.0
sg10
I1
sg11
F101535.97418856622
sbaa(lp156
g2
(g3
g4
Ntp157
Rp158
(dp159
g8
F0.45454545454545414
sg9
F51.0
sg10
I1
sg11
F101536.12973807317
sbag2
(g3
g4
Ntp160
Rp161
(dp162
g8
F0.45454545454545414
sg9
F50.0
sg10
I1
sg11
F101536.12381205786
sbag2
(g3
g4
Ntp163
Rp164
(dp165
g8
F0.45454545454545414
sg9
F49.0
sg10
I1
sg11
F101536.11717014427
sbag2
(g3
g4
Ntp166
Rp167
(dp168
g8
F0.45454545454545414
sg9
F48.0
sg10
I1
sg11
F101536.10977562856
sbag2
(g3
g4
Ntp169
Rp170
(dp171
g8
F0.45454545454545414
sg9
F47.0
sg10
I1
sg11
F101536.10159065115
sbag2
(g3
g4
Ntp172
Rp173
(dp174
g8
F0.45454545454545414
sg9
F46.0
sg10
I1
sg11
F101536.09257624054
sbag2
(g3
g4
Ntp175
Rp176
(dp177
g8
F0.45454545454545414
sg9
F45.0
sg10
I1
sg11
F101536.0826923704
sbag2
(g3
g4
Ntp178
Rp179
(dp180
g8
F0.45454545454545414
sg9
F44.0
sg10
I1
sg11
F101536.07189803144
sbag2
(g3
g4
Ntp181
Rp182
(dp183
g8
F0.45454545454545414
sg9
F43.0
sg10
I1
sg11
F101536.0601513196
sbag2
(g3
g4
Ntp184
Rp185
(dp186
g8
F0.45454545454545414
sg9
F42.0
sg10
I1
sg11
F101536.04740954182
sbag2
(g3
g4
Ntp187
Rp188
(dp189
g8
F0.45454545454545414
sg9
F41.0
sg10
I1
sg11
F101536.03362934118
sbag2
(g3
g4
Ntp190
Rp191
(dp192
g8
F0.45454545454545414
sg9
F40.0
sg10
I1
sg11
F101536.01876684347
sbaa(lp193
g2
(g3
g4
Ntp194
Rp195
(dp196
g8
F1.8181818181818175
sg9
F51.0
sg10
I1
sg11
F101536.16982756699
sbag2
(g3
g4
Ntp197
Rp198
(dp199
g8
F1.8181818181818175
sg9
F50.0
sg10
I1
sg11
F101536.16458680487
sbag2
(g3
g4
Ntp200
Rp201
(dp202
g8
F1.8181818181818175
sg9
F49.0
sg10
I1
sg11
F101536.15862175841
sbag2
(g3
g4
Ntp203
Rp204
(dp205
g8
F1.8181818181818175
sg9
F48.0
sg10
I1
sg11
F101536.15189323101
sbag2
(g3
g4
Ntp206
Rp207
(dp208
g8
F1.8181818181818175
sg9
F47.0
sg10
I1
sg11
F101536.14436064771
sbag2
(g3
g4
Ntp209
Rp210
(dp211
g8
F1.8181818181818175
sg9
F46.0
sg10
I1
sg11
F101536.13598208837
sbag2
(g3
g4
Ntp212
Rp213
(dp214
g8
F1.8181818181818175
sg9
F45.0
sg10
I1
sg11
F101536.12671433437
sbag2
(g3
g4
Ntp215
Rp216
(dp217
g8
F1.8181818181818175
sg9
F44.0
sg10
I1
sg11
F101536.11651293152
sbag2
(g3
g4
Ntp218
Rp219
(dp220
g8
F1.8181818181818175
sg9
F43.0
sg10
I1
sg11
F101536.10533226939
sbag2
(g3
g4
Ntp221
Rp222
(dp223
g8
F1.8181818181818175
sg9
F42.0
sg10
I1
sg11
F101536.09312568075
sbag2
(g3
g4
Ntp224
Rp225
(dp226
g8
F1.8181818181818175
sg9
F41.0
sg10
I1
sg11
F101536.07984556166
sbag2
(g3
g4
Ntp227
Rp228
(dp229
g8
F1.8181818181818175
sg9
F40.0
sg10
I1
sg11
F101536.06544351477
sbaa(lp230
g2
(g3
g4
Ntp231
Rp232
(dp233
g8
F3.1818181818181817
sg9
F51.0
sg10
I1
sg11
F101536.21119549882
sbag2
(g3
g4
Ntp234
Rp235
(dp236
g8
F3.1818181818181817
sg9
F50.0
sg10
I1
sg11
F101536.20671038619
sbag2
(g3
g4
Ntp237
Rp238
(dp239
g8
F3.1818181818181817
sg9
F49.0
sg10
I1
sg11
F101536.20149521435
sbag2
(g3
g4
Ntp240
Rp241
(dp242
g8
F3.1818181818181817
sg9
F48.0
sg10
I1
sg11
F101536.1955082558
sbag2
(g3
g4
Ntp243
Rp244
(dp245
g8
F3.1818181818181817
sg9
F47.0
sg10
I1
sg11
F101536.18870615945
sbag2
(g3
g4
Ntp246
Rp247
(dp248
g8
F3.1818181818181817
sg9
F46.0
sg10
I1
sg11
F101536.18104396992
sbag2
(g3
g4
Ntp249
Rp250
(dp251
g8
F3.1818181818181817
sg9
F45.0
sg10
I1
sg11
F101536.1724751613
sbag2
(g3
g4
Ntp252
Rp253
(dp254
g8
F3.1818181818181817
sg9
F44.0
sg10
I1
sg11
F101536.16295168648
sbag2
(g3
g4
Ntp255
Rp256
(dp257
g8
F3.1818181818181817
sg9
F43.0
sg10
I1
sg11
F101536.1524240458
sbag2
(g3
g4
Ntp258
Rp259
(dp260
g8
F3.1818181818181817
sg9
F42.0
sg10
I1
sg11
F101536.14084137518
sbag2
(g3
g4
Ntp261
Rp262
(dp263
g8
F3.1818181818181817
sg9
F41.0
sg10
I1
sg11
F101536.12815155766
sbag2
(g3
g4
Ntp264
Rp265
(dp266
g8
F3.1818181818181817
sg9
F40.0
sg10
I1
sg11
F101536.11430136029
sbaa(lp267
g2
(g3
g4
Ntp268
Rp269
(dp270
g8
F4.545454545454545
sg9
F51.0
sg10
I1
sg11
F101536.25384838946
sbag2
(g3
g4
Ntp271
Rp272
(dp273
g8
F4.545454545454545
sg9
F50.0
sg10
I1
sg11
F101536.25019360275
sbag2
(g3
g4
Ntp274
Rp275
(dp276
g8
F4.545454545454545
sg9
F49.0
sg10
I1
sg11
F101536.24580602389
sbag2
(g3
g4
Ntp277
Rp278
(dp279
g8
F4.545454545454545
sg9
F48.0
sg10
I1
sg11
F101536.24064138235
sbag2
(g3
g4
Ntp280
Rp281
(dp282
g8
F4.545454545454545
sg9
F47.0
sg10
I1
sg11
F101536.23465351592
sbag2
(g3
g4
Ntp283
Rp284
(dp285
g8
F4.545454545454545
sg9
F46.0
sg10
I1
sg11
F101536.22779437252
sbag2
(g3
g4
Ntp286
Rp287
(dp288
g8
F4.545454545454545
sg9
F45.0
sg10
I1
sg11
F101536.22001402723
sbag2
(g3
g4
Ntp289
Rp290
(dp291
g8
F4.545454545454545
sg9
F44.0
sg10
I1
sg11
F101536.21126071505
sbag2
(g3
g4
Ntp292
Rp293
(dp294
g8
F4.545454545454545
sg9
F43.0
sg10
I1
sg11
F101536.20148088309
sbag2
(g3
g4
Ntp295
Rp296
(dp297
g8
F4.545454545454545
sg9
F42.0
sg10
I1
sg11
F101536.19061926442
sbag2
(g3
g4
Ntp298
Rp299
(dp300
g8
F4.545454545454545
sg9
F41.0
sg10
I1
sg11
F101536.1786189761
sbag2
(g3
g4
Ntp301
Rp302
(dp303
g8
F4.545454545454545
sg9
F40.0
sg10
I1
sg11
F101536.16542164457
sbaa(lp304
g2
(g3
g4
Ntp305
Rp306
(dp307
g8
F5.909090909090908
sg9
F51.0
sg10
I1
sg11
F101536.29778711977
sbag2
(g3
g4
Ntp308
Rp309
(dp310
g8
F5.909090909090908
sg9
F50.0
sg10
I1
sg11
F101536.29504160074
sbag2
(g3
g4
Ntp311
Rp312
(dp313
g8
F5.909090909090908
sg9
F49.0
sg10
I1
sg11
F101536.29156406604
sbag2
(g3
g4
Ntp314
Rp315
(dp316
g8
F5.909090909090908
sg9
F48.0
sg10
I1
sg11
F101536.28730772214
sbag2
(g3
g4
Ntp317
Rp318
(dp319
g8
F5.909090909090908
sg9
F47.0
sg10
I1
sg11
F101536.28222359257
sbag2
(g3
g4
Ntp320
Rp321
(dp322
g8
F5.909090909090908
sg9
F46.0
sg10
I1
sg11
F101536.27626049909
sbag2
(g3
g4
Ntp323
Rp324
(dp325
g8
F5.909090909090908
sg9
F45.0
sg10
I1
sg11
F101536.2693650573
sbag2
(g3
g4
Ntp326
Rp327
(dp328
g8
F5.909090909090908
sg9
F44.0
sg10
I1
sg11
F101536.26148168846
sbag2
(g3
g4
Ntp329
Rp330
(dp331
g8
F5.909090909090908
sg9
F43.0
sg10
I1
sg11
F101536.252552651
sbag2
(g3
g4
Ntp332
Rp333
(dp334
g8
F5.909090909090908
sg9
F42.0
sg10
I1
sg11
F101536.24251809405
sbag2
(g3
g4
Ntp335
Rp336
(dp337
g8
F5.909090909090908
sg9
F41.0
sg10
I1
sg11
F101536.23131613695
sbag2
(g3
g4
Ntp338
Rp339
(dp340
g8
F5.909090909090908
sg9
F40.0
sg10
I1
sg11
F101536.21888297738
sbaa(lp341
g2
(g3
g4
Ntp342
Rp343
(dp344
g8
F7.272727272727272
sg9
F51.0
sg10
I1
sg11
F101536.34300612009
sbag2
(g3
g4
Ntp345
Rp346
(dp347
g8
F7.272727272727272
sg9
F50.0
sg10
I1
sg11
F101536.34125300228
sbag2
(g3
g4
Ntp348
Rp349
(dp350
g8
F7.272727272727272
sg9
F49.0
sg10
I1
sg11
F101536.33877265871
sbag2
(g3
g4
Ntp351
Rp352
(dp353
g8
F7.272727272727272
sg9
F48.0
sg10
I1
sg11
F101536.33551583075
sbag2
(g3
g4
Ntp354
Rp355
(dp356
g8
F7.272727272727272
sg9
F47.0
sg10
I1
sg11
F101536.33143076376
sbag2
(g3
g4
Ntp357
Rp358
(dp359
g8
F7.272727272727272
sg9
F46.0
sg10
I1
sg11
F101536.32646316318
sbag2
(g3
g4
Ntp360
Rp361
(dp362
g8
F7.272727272727272
sg9
F45.0
sg10
I1
sg11
F101536.32055616425
sbag2
(g3
g4
Ntp363
Rp364
(dp365
g8
F7.272727272727272
sg9
F44.0
sg10
I1
sg11
F101536.3136503178
sbag2
(g3
g4
Ntp366
Rp367
(dp368
g8
F7.272727272727272
sg9
F43.0
sg10
I1
sg11
F101536.30568359519
sbag2
(g3
g4
Ntp369
Rp370
(dp371
g8
F7.272727272727272
sg9
F42.0
sg10
I1
sg11
F101536.2965914161
sbag2
(g3
g4
Ntp372
Rp373
(dp374
g8
F7.272727272727272
sg9
F41.0
sg10
I1
sg11
F101536.2863067023
sbag2
(g3
g4
Ntp375
Rp376
(dp377
g8
F7.272727272727272
sg9
F40.0
sg10
I1
sg11
F101536.2747599623
sbaa(lp378
g2
(g3
g4
Ntp379
Rp380
(dp381
g8
F8.636363636363635
sg9
F51.0
sg10
I1
sg11
F101536.38949250338
sbag2
(g3
g4
Ntp382
Rp383
(dp384
g8
F8.636363636363635
sg9
F50.0
sg10
I1
sg11
F101536.3888189702
sbag2
(g3
g4
Ntp385
Rp386
(dp387
g8
F8.636363636363635
sg9
F49.0
sg10
I1
sg11
F101536.38742755206
sbag2
(g3
g4
Ntp388
Rp389
(dp390
g8
F8.636363636363635
sg9
F48.0
sg10
I1
sg11
F101536.38526662841
sbag2
(g3
g4
Ntp391
Rp392
(dp393
g8
F8.636363636363635
sg9
F47.0
sg10
I1
sg11
F101536.38228174935
sbag2
(g3
g4
Ntp394
Rp395
(dp396
g8
F8.636363636363635
sg9
F46.0
sg10
I1
sg11
F101536.37841556214
sbag2
(g3
g4
Ntp397
Rp398
(dp399
g8
F8.636363636363635
sg9
F45.0
sg10
I1
sg11
F101536.37360774976
sbag2
(g3
g4
Ntp400
Rp401
(dp402
g8
F8.636363636363635
sg9
F44.0
sg10
I1
sg11
F101536.36779498492
sbag2
(g3
g4
Ntp403
Rp404
(dp405
g8
F8.636363636363635
sg9
F43.0
sg10
I1
sg11
F101536.36091090247
sbag2
(g3
g4
Ntp406
Rp407
(dp408
g8
F8.636363636363635
sg9
F42.0
sg10
I1
sg11
F101536.35288609417
sbag2
(g3
g4
Ntp409
Rp410
(dp411
g8
F8.636363636363635
sg9
F41.0
sg10
I1
sg11
F101536.34364812962
sbag2
(g3
g4
Ntp412
Rp413
(dp414
g8
F8.636363636363635
sg9
F40.0
sg10
I1
sg11
F101536.33312160888
sbaa(lp415
g2
(g3
g4
Ntp416
Rp417
(dp418
g8
F10.0
sg9
F51.0
sg10
I1
sg11
F101536.4372251477
sbag2
(g3
g4
Ntp419
Rp420
(dp421
g8
F10.0
sg9
F50.0
sg10
I1
sg11
F101536.43772220948
sbag2
(g3
g4
Ntp422
Rp423
(dp424
g8
F10.0
sg9
F49.0
sg10
I1
sg11
F101536.43751584576
sbag2
(g3
g4
Ntp425
Rp426
(dp427
g8
F10.0
sg9
F48.0
sg10
I1
sg11
F101536.43655223011
sbag2
(g3
g4
Ntp428
Rp429
(dp430
g8
F10.0
sg9
F47.0
sg10
I1
sg11
F101536.43477435564
sbag2
(g3
g4
Ntp431
Rp432
(dp433
g8
F10.0
sg9
F46.0
sg10
I1
sg11
F101536.43212192693
sbag2
(g3
g4
Ntp434
Rp435
(dp436
g8
F10.0
sg9
F45.0
sg10
I1
sg11
F101536.42853126228
sbag2
(g3
g4
Ntp437
Rp438
(dp439
g8
F10.0
sg9
F44.0
sg10
I1
sg11
F101536.42393520978
sbag2
(g3
g4
Ntp440
Rp441
(dp442
g8
F10.0
sg9
F43.0
sg10
I1
sg11
F101536.41826307973
sbag2
(g3
g4
Ntp443
Rp444
(dp445
g8
F10.0
sg9
F42.0
sg10
I1
sg11
F101536.41144059888
sbag2
(g3
g4
Ntp446
Rp447
(dp448
g8
F10.0
sg9
F41.0
sg10
I1
sg11
F101536.40338989017
sbag2
(g3
g4
Ntp449
Rp450
(dp451
g8
F10.0
sg9
F40.0
sg10
I1
sg11
F101536.39402948329
sbaa.