(lp0
(lp1
ccopy_reg
_reconstructor
p2
(clibPoint
Point_C
p3
c__builtin__
object
p4
Ntp5
Rp6
(dp7
S'y'
p8
F51.0
sS'x'
p9
F-5.0
sS'mu'
p10
I2
sS'val'
p11
F101507.72323272725
sbag2
(g3
g4
Ntp12
Rp13
(dp14
g8
F51.0
sg9
F-4.634146341463414
sg10
I2
sg11
F101507.74438588058
sbag2
(g3
g4
Ntp15
Rp16
(dp17
g8
F51.0
sg9
F-4.2682926829268295
sg10
I2
sg11
F101508.41447357324
sbag2
(g3
g4
Ntp18
Rp19
(dp20
g8
F51.0
sg9
F-3.902439024390244
sg10
I2
sg11
F101509.93088257847
sbag2
(g3
g4
Ntp21
Rp22
(dp23
g8
F51.0
sg9
F-3.5365853658536586
sg10
I2
sg11
F101512.41754033105
sbag2
(g3
g4
Ntp24
Rp25
(dp26
g8
F51.0
sg9
F-3.1707317073170733
sg10
I2
sg11
F101515.80426389657
sbag2
(g3
g4
Ntp27
Rp28
(dp29
g8
F51.0
sg9
F-2.8048780487804876
sg10
I2
sg11
F101519.74044355201
sbag2
(g3
g4
Ntp30
Rp31
(dp32
g8
F51.0
sg9
F-2.4390243902439024
sg10
I2
sg11
F101523.65573637908
sbag2
(g3
g4
Ntp33
Rp34
(dp35
g8
F51.0
sg9
F-2.073170731707317
sg10
I2
sg11
F101527.02934973336
sbag2
(g3
g4
Ntp36
Rp37
(dp38
g8
F51.0
sg9
F-1.707317073170732
sg10
I2
sg11
F101529.76436475925
sbag2
(g3
g4
Ntp39
Rp40
(dp41
g8
F51.0
sg9
F-1.3414634146341466
sg10
I2
sg11
F101532.24786232924
sbag2
(g3
g4
Ntp42
Rp43
(dp44
g8
F51.0
sg9
F-0.975609756097561
sg10
I2
sg11
F101534.93939281326
sbag2
(g3
g4
Ntp45
Rp46
(dp47
g8
F51.0
sg9
F-0.6097560975609753
sg10
I2
sg11
F101538.09833998603
sbag2
(g3
g4
Ntp48
Rp49
(dp50
g8
F51.0
sg9
F-0.24390243902439046
sg10
I2
sg11
F101541.87848427297
sbag2
(g3
g4
Ntp51
Rp52
(dp53
g8
F51.0
sg9
F0.12195121951219523
sg10
I2
sg11
F101546.42679318054
sbag2
(g3
g4
Ntp54
Rp55
(dp56
g8
F51.0
sg9
F0.48780487804878003
sg10
I2
sg11
F101551.87752763386
sbag2
(g3
g4
Ntp57
Rp58
(dp59
g8
F51.0
sg9
F0.8536585365853657
sg10
I2
sg11
F101558.3298921543
sbag2
(g3
g4
Ntp60
Rp61
(dp62
g8
F51.0
sg9
F1.2195121951219514
sg10
I2
sg11
F101565.62382587271
sbag2
(g3
g4
Ntp63
Rp64
(dp65
g8
F51.0
sg9
F1.5853658536585362
sg10
I2
sg11
F101572.66474859673
sbag2
(g3
g4
Ntp66
Rp67
(dp68
g8
F51.0
sg9
F1.951219512195122
sg10
I2
sg11
F101578.10412469687
sbag2
(g3
g4
Ntp69
Rp70
(dp71
g8
F51.0
sg9
F2.3170731707317067
sg10
I2
sg11
F101584.23838598497
sbag2
(g3
g4
Ntp72
Rp73
(dp74
g8
F51.0
sg9
F2.6829268292682924
sg10
I2
sg11
F101595.07225416858
sbag2
(g3
g4
Ntp75
Rp76
(dp77
g8
F51.0
sg9
F3.048780487804878
sg10
I2
sg11
F101604.25200981509
sbag2
(g3
g4
Ntp78
Rp79
(dp80
g8
F51.0
sg9
F3.414634146341463
sg10
I2
sg11
F101600.2270918388
sbag2
(g3
g4
Ntp81
Rp82
(dp83
g8
F51.0
sg9
F3.7804878048780495
sg10
I2
sg11
F101590.45004358025
sbag2
(g3
g4
Ntp84
Rp85
(dp86
g8
F51.0
sg9
F4.146341463414634
sg10
I2
sg11
F101583.3323457674
sbag2
(g3
g4
Ntp87
Rp88
(dp89
g8
F51.0
sg9
F4.512195121951219
sg10
I2
sg11
F101579.23844620962
sbag2
(g3
g4
Ntp90
Rp91
(dp92
g8
F51.0
sg9
F4.878048780487804
sg10
I2
sg11
F101576.90760591268
sbag2
(g3
g4
Ntp93
Rp94
(dp95
g8
F51.0
sg9
F5.2439024390243905
sg10
I2
sg11
F101575.56679973859
sbag2
(g3
g4
Ntp96
Rp97
(dp98
g8
F51.0
sg9
F5.609756097560975
sg10
I2
sg11
F101574.82685716412
sbag2
(g3
g4
Ntp99
Rp100
(dp101
g8
F51.0
sg9
F5.97560975609756
sg10
I2
sg11
F101574.42346622476
sbag2
(g3
g4
Ntp102
Rp103
(dp104
g8
F51.0
sg9
F6.341463414634147
sg10
I2
sg11
F101574.1368977445
sbag2
(g3
g4
Ntp105
Rp106
(dp107
g8
F51.0
sg9
F6.7073170731707314
sg10
I2
sg11
F101573.78673519498
sbag2
(g3
g4
Ntp108
Rp109
(dp110
g8
F51.0
sg9
F7.073170731707316
sg10
I2
sg11
F101573.20567471767
sbag2
(g3
g4
Ntp111
Rp112
(dp113
g8
F51.0
sg9
F7.439024390243903
sg10
I2
sg11
F101572.20710020699
sbag2
(g3
g4
Ntp114
Rp115
(dp116
g8
F51.0
sg9
F7.804878048780488
sg10
I2
sg11
F101570.60428022605
sbag2
(g3
g4
Ntp117
Rp118
(dp119
g8
F51.0
sg9
F8.170731707317072
sg10
I2
sg11
F101568.28009053828
sbag2
(g3
g4
Ntp120
Rp121
(dp122
g8
F51.0
sg9
F8.536585365853659
sg10
I2
sg11
F101565.24211143742
sbag2
(g3
g4
Ntp123
Rp124
(dp125
g8
F51.0
sg9
F8.902439024390244
sg10
I2
sg11
F101561.61526617344
sbag2
(g3
g4
Ntp126
Rp127
(dp128
g8
F51.0
sg9
F9.268292682926829
sg10
I2
sg11
F101557.58752183458
sbag2
(g3
g4
Ntp129
Rp130
(dp131
g8
F51.0
sg9
F9.634146341463413
sg10
I2
sg11
F101553.35240522165
sbag2
(g3
g4
Ntp132
Rp133
(dp134
g8
F51.0
sg9
F10.0
sg10
I2
sg11
F101549.0741051177
sbaa(lp135
g2
(g3
g4
Ntp136
Rp137
(dp138
g8
F50.75609756097561
sg9
F-5.0
sg10
I2
sg11
F101505.23650550695
sbag2
(g3
g4
Ntp139
Rp140
(dp141
g8
F50.75609756097561
sg9
F-4.634146341463414
sg10
I2
sg11
F101504.91995061362
sbag2
(g3
g4
Ntp142
Rp143
(dp144
g8
F50.75609756097561
sg9
F-4.2682926829268295
sg10
I2
sg11
F101505.335780483
sbag2
(g3
g4
Ntp145
Rp146
(dp147
g8
F50.75609756097561
sg9
F-3.902439024390244
sg10
I2
sg11
F101506.79204236355
sbag2
(g3
g4
Ntp148
Rp149
(dp150
g8
F50.75609756097561
sg9
F-3.5365853658536586
sg10
I2
sg11
F101509.55056034333
sbag2
(g3
g4
Ntp151
Rp152
(dp153
g8
F50.75609756097561
sg9
F-3.1707317073170733
sg10
I2
sg11
F101513.61515675546
sbag2
(g3
g4
Ntp154
Rp155
(dp156
g8
F50.75609756097561
sg9
F-2.8048780487804876
sg10
I2
sg11
F101518.53057197557
sbag2
(g3
g4
Ntp157
Rp158
(dp159
g8
F50.75609756097561
sg9
F-2.4390243902439024
sg10
I2
sg11
F101523.39992963019
sbag2
(g3
g4
Ntp160
Rp161
(dp162
g8
F50.75609756097561
sg9
F-2.073170731707317
sg10
I2
sg11
F101527.26279232898
sbag2
(g3
g4
Ntp163
Rp164
(dp165
g8
F50.75609756097561
sg9
F-1.707317073170732
sg10
I2
sg11
F101529.86592477631
sbag2
(g3
g4
Ntp166
Rp167
(dp168
g8
F50.75609756097561
sg9
F-1.3414634146341466
sg10
I2
sg11
F101531.9618961819
sbag2
(g3
g4
Ntp169
Rp170
(dp171
g8
F50.75609756097561
sg9
F-0.975609756097561
sg10
I2
sg11
F101534.36915232729
sbag2
(g3
g4
Ntp172
Rp173
(dp174
g8
F50.75609756097561
sg9
F-0.6097560975609753
sg10
I2
sg11
F101537.39724964571
sbag2
(g3
g4
Ntp175
Rp176
(dp177
g8
F50.75609756097561
sg9
F-0.24390243902439046
sg10
I2
sg11
F101541.18860787348
sbag2
(g3
g4
Ntp178
Rp179
(dp180
g8
F50.75609756097561
sg9
F0.12195121951219523
sg10
I2
sg11
F101545.93071195371
sbag2
(g3
g4
Ntp181
Rp182
(dp183
g8
F50.75609756097561
sg9
F0.48780487804878003
sg10
I2
sg11
F101551.81437388135
sbag2
(g3
g4
Ntp184
Rp185
(dp186
g8
F50.75609756097561
sg9
F0.8536585365853657
sg10
I2
sg11
F101559.11600717065
sbag2
(g3
g4
Ntp187
Rp188
(dp189
g8
F50.75609756097561
sg9
F1.2195121951219514
sg10
I2
sg11
F101568.10392090974
sbag2
(g3
g4
Ntp190
Rp191
(dp192
g8
F50.75609756097561
sg9
F1.5853658536585362
sg10
I2
sg11
F101577.2788624282
sbag2
(g3
g4
Ntp193
Rp194
(dp195
g8
F50.75609756097561
sg9
F1.951219512195122
sg10
I2
sg11
F101582.48493000468
sbag2
(g3
g4
Ntp196
Rp197
(dp198
g8
F50.75609756097561
sg9
F2.3170731707317067
sg10
I2
sg11
F101587.0260586495
sbag2
(g3
g4
Ntp199
Rp200
(dp201
g8
F50.75609756097561
sg9
F2.6829268292682924
sg10
I2
sg11
F101601.035302947
sbag2
(g3
g4
Ntp202
Rp203
(dp204
g8
F50.75609756097561
sg9
F3.048780487804878
sg10
I2
sg11
F101615.61021204646
sbag2
(g3
g4
Ntp205
Rp206
(dp207
g8
F50.75609756097561
sg9
F3.414634146341463
sg10
I2
sg11
F101607.77641081379
sbag2
(g3
g4
Ntp208
Rp209
(dp210
g8
F50.75609756097561
sg9
F3.7804878048780495
sg10
I2
sg11
F101593.59119103759
sbag2
(g3
g4
Ntp211
Rp212
(dp213
g8
F50.75609756097561
sg9
F4.146341463414634
sg10
I2
sg11
F101585.29649785745
sbag2
(g3
g4
Ntp214
Rp215
(dp216
g8
F50.75609756097561
sg9
F4.512195121951219
sg10
I2
sg11
F101581.15836128549
sbag2
(g3
g4
Ntp217
Rp218
(dp219
g8
F50.75609756097561
sg9
F4.878048780487804
sg10
I2
sg11
F101578.95821390706
sbag2
(g3
g4
Ntp220
Rp221
(dp222
g8
F50.75609756097561
sg9
F5.2439024390243905
sg10
I2
sg11
F101577.79584659067
sbag2
(g3
g4
Ntp223
Rp224
(dp225
g8
F50.75609756097561
sg9
F5.609756097560975
sg10
I2
sg11
F101577.30409465409
sbag2
(g3
g4
Ntp226
Rp227
(dp228
g8
F50.75609756097561
sg9
F5.97560975609756
sg10
I2
sg11
F101577.18885535187
sbag2
(g3
g4
Ntp229
Rp230
(dp231
g8
F50.75609756097561
sg9
F6.341463414634147
sg10
I2
sg11
F101577.185897864
sbag2
(g3
g4
Ntp232
Rp233
(dp234
g8
F50.75609756097561
sg9
F6.7073170731707314
sg10
I2
sg11
F101577.10404003829
sbag2
(g3
g4
Ntp235
Rp236
(dp237
g8
F50.75609756097561
sg9
F7.073170731707316
sg10
I2
sg11
F101576.77129238585
sbag2
(g3
g4
Ntp238
Rp239
(dp240
g8
F50.75609756097561
sg9
F7.439024390243903
sg10
I2
sg11
F101575.95039592069
sbag2
(g3
g4
Ntp241
Rp242
(dp243
g8
F50.75609756097561
sg9
F7.804878048780488
sg10
I2
sg11
F101574.36650263937
sbag2
(g3
g4
Ntp244
Rp245
(dp246
g8
F50.75609756097561
sg9
F8.170731707317072
sg10
I2
sg11
F101571.84338579963
sbag2
(g3
g4
Ntp247
Rp248
(dp249
g8
F50.75609756097561
sg9
F8.536585365853659
sg10
I2
sg11
F101568.4044456326
sbag2
(g3
g4
Ntp250
Rp251
(dp252
g8
F50.75609756097561
sg9
F8.902439024390244
sg10
I2
sg11
F101564.24804120488
sbag2
(g3
g4
Ntp253
Rp254
(dp255
g8
F50.75609756097561
sg9
F9.268292682926829
sg10
I2
sg11
F101559.64634098312
sbag2
(g3
g4
Ntp256
Rp257
(dp258
g8
F50.75609756097561
sg9
F9.634146341463413
sg10
I2
sg11
F101554.85619366136
sbag2
(g3
g4
Ntp259
Rp260
(dp261
g8
F50.75609756097561
sg9
F10.0
sg10
I2
sg11
F101550.07743704556
sbaa(lp262
g2
(g3
g4
Ntp263
Rp264
(dp265
g8
F50.51219512195122
sg9
F-5.0
sg10
I2
sg11
F101502.47418390482
sbag2
(g3
g4
Ntp266
Rp267
(dp268
g8
F50.51219512195122
sg9
F-4.634146341463414
sg10
I2
sg11
F101501.69142163348
sbag2
(g3
g4
Ntp269
Rp270
(dp271
g8
F50.51219512195122
sg9
F-4.2682926829268295
sg10
I2
sg11
F101501.69327583576
sbag2
(g3
g4
Ntp272
Rp273
(dp274
g8
F50.51219512195122
sg9
F-3.902439024390244
sg10
I2
sg11
F101502.9386594437
sbag2
(g3
g4
Ntp275
Rp276
(dp277
g8
F50.51219512195122
sg9
F-3.5365853658536586
sg10
I2
sg11
F101505.9359969397
sbag2
(g3
g4
Ntp278
Rp279
(dp280
g8
F50.51219512195122
sg9
F-3.1707317073170733
sg10
I2
sg11
F101510.88299765009
sbag2
(g3
g4
Ntp281
Rp282
(dp283
g8
F50.51219512195122
sg9
F-2.8048780487804876
sg10
I2
sg11
F101517.24351422308
sbag2
(g3
g4
Ntp284
Rp285
(dp286
g8
F50.51219512195122
sg9
F-2.4390243902439024
sg10
I2
sg11
F101523.66166383687
sbag2
(g3
g4
Ntp287
Rp288
(dp289
g8
F50.51219512195122
sg9
F-2.073170731707317
sg10
I2
sg11
F101528.35083393617
sbag2
(g3
g4
Ntp290
Rp291
(dp292
g8
F50.51219512195122
sg9
F-1.707317073170732
sg10
I2
sg11
F101530.57490538218
sbag2
(g3
g4
Ntp293
Rp294
(dp295
g8
F50.51219512195122
sg9
F-1.3414634146341466
sg10
I2
sg11
F101531.86178316694
sbag2
(g3
g4
Ntp296
Rp297
(dp298
g8
F50.51219512195122
sg9
F-0.975609756097561
sg10
I2
sg11
F101533.75557895166
sbag2
(g3
g4
Ntp299
Rp300
(dp301
g8
F50.51219512195122
sg9
F-0.6097560975609753
sg10
I2
sg11
F101536.52212313609
sbag2
(g3
g4
Ntp302
Rp303
(dp304
g8
F50.51219512195122
sg9
F-0.24390243902439046
sg10
I2
sg11
F101540.21770232674
sbag2
(g3
g4
Ntp305
Rp306
(dp307
g8
F50.51219512195122
sg9
F0.12195121951219523
sg10
I2
sg11
F101545.0781389933
sbag2
(g3
g4
Ntp308
Rp309
(dp310
g8
F50.51219512195122
sg9
F0.48780487804878003
sg10
I2
sg11
F101551.29466767483
sbag2
(g3
g4
Ntp311
Rp312
(dp313
g8
F50.51219512195122
sg9
F0.8536585365853657
sg10
I2
sg11
F101559.27658728673
sbag2
(g3
g4
Ntp314
Rp315
(dp316
g8
F50.51219512195122
sg9
F1.2195121951219514
sg10
I2
sg11
F101570.30710727627
sbag2
(g3
g4
Ntp317
Rp318
(dp319
g8
F50.51219512195122
sg9
F1.5853658536585362
sg10
I2
sg11
F101583.66922717214
sbag2
(g3
g4
Ntp320
Rp321
(dp322
g8
F50.51219512195122
sg9
F1.951219512195122
sg10
I2
sg11
F101588.78845045182
sbag2
(g3
g4
Ntp323
Rp324
(dp325
g8
F50.51219512195122
sg9
F2.3170731707317067
sg10
I2
sg11
F101588.36228844279
sbag2
(g3
g4
Ntp326
Rp327
(dp328
g8
F50.51219512195122
sg9
F2.6829268292682924
sg10
I2
sg11
F101601.85506913727
sbag2
(g3
g4
Ntp329
Rp330
(dp331
g8
F50.51219512195122
sg9
F3.048780487804878
sg10
I2
sg11
F101619.19907335716
sbag2
(g3
g4
Ntp332
Rp333
(dp334
g8
F50.51219512195122
sg9
F3.414634146341463
sg10
I2
sg11
F101609.44678559531
sbag2
(g3
g4
Ntp335
Rp336
(dp337
g8
F50.51219512195122
sg9
F3.7804878048780495
sg10
I2
sg11
F101594.16741388373
sbag2
(g3
g4
Ntp338
Rp339
(dp340
g8
F50.51219512195122
sg9
F4.146341463414634
sg10
I2
sg11
F101586.51516661617
sbag2
(g3
g4
Ntp341
Rp342
(dp343
g8
F50.51219512195122
sg9
F4.512195121951219
sg10
I2
sg11
F101582.99785921809
sbag2
(g3
g4
Ntp344
Rp345
(dp346
g8
F50.51219512195122
sg9
F4.878048780487804
sg10
I2
sg11
F101581.0959832724
sbag2
(g3
g4
Ntp347
Rp348
(dp349
g8
F50.51219512195122
sg9
F5.2439024390243905
sg10
I2
sg11
F101580.18386378408
sbag2
(g3
g4
Ntp350
Rp351
(dp352
g8
F50.51219512195122
sg9
F5.609756097560975
sg10
I2
sg11
F101580.04038411913
sbag2
(g3
g4
Ntp353
Rp354
(dp355
g8
F50.51219512195122
sg9
F5.97560975609756
sg10
I2
sg11
F101580.31162392074
sbag2
(g3
g4
Ntp356
Rp357
(dp358
g8
F50.51219512195122
sg9
F6.341463414634147
sg10
I2
sg11
F101580.65515985644
sbag2
(g3
g4
Ntp359
Rp360
(dp361
g8
F50.51219512195122
sg9
F6.7073170731707314
sg10
I2
sg11
F101580.89612769404
sbag2
(g3
g4
Ntp362
Rp363
(dp364
g8
F50.51219512195122
sg9
F7.073170731707316
sg10
I2
sg11
F101580.89728493767
sbag2
(g3
g4
Ntp365
Rp366
(dp367
g8
F50.51219512195122
sg9
F7.439024390243903
sg10
I2
sg11
F101580.35080041445
sbag2
(g3
g4
Ntp368
Rp369
(dp370
g8
F50.51219512195122
sg9
F7.804878048780488
sg10
I2
sg11
F101578.82436206874
sbag2
(g3
g4
Ntp371
Rp372
(dp373
g8
F50.51219512195122
sg9
F8.170731707317072
sg10
I2
sg11
F101576.03977038032
sbag2
(g3
g4
Ntp374
Rp375
(dp376
g8
F50.51219512195122
sg9
F8.536585365853659
sg10
I2
sg11
F101572.05851106919
sbag2
(g3
g4
Ntp377
Rp378
(dp379
g8
F50.51219512195122
sg9
F8.902439024390244
sg10
I2
sg11
F101567.206586931
sbag2
(g3
g4
Ntp380
Rp381
(dp382
g8
F50.51219512195122
sg9
F9.268292682926829
sg10
I2
sg11
F101561.88230175461
sbag2
(g3
g4
Ntp383
Rp384
(dp385
g8
F50.51219512195122
sg9
F9.634146341463413
sg10
I2
sg11
F101556.42267057489
sbag2
(g3
g4
Ntp386
Rp387
(dp388
g8
F50.51219512195122
sg9
F10.0
sg10
I2
sg11
F101551.06320446925
sbaa(lp389
g2
(g3
g4
Ntp390
Rp391
(dp392
g8
F50.26829268292683
sg9
F-5.0
sg10
I2
sg11
F101499.44386120116
sbag2
(g3
g4
Ntp393
Rp394
(dp395
g8
F50.26829268292683
sg9
F-4.634146341463414
sg10
I2
sg11
F101498.03909498881
sbag2
(g3
g4
Ntp396
Rp397
(dp398
g8
F50.26829268292683
sg9
F-4.2682926829268295
sg10
I2
sg11
F101497.39575394696
sbag2
(g3
g4
Ntp399
Rp400
(dp401
g8
F50.26829268292683
sg9
F-3.902439024390244
sg10
I2
sg11
F101498.14752851154
sbag2
(g3
g4
Ntp402
Rp403
(dp404
g8
F50.26829268292683
sg9
F-3.5365853658536586
sg10
I2
sg11
F101501.22466215355
sbag2
(g3
g4
Ntp405
Rp406
(dp407
g8
F50.26829268292683
sg9
F-3.1707317073170733
sg10
I2
sg11
F101507.25402558985
sbag2
(g3
g4
Ntp408
Rp409
(dp410
g8
F50.26829268292683
sg9
F-2.8048780487804876
sg10
I2
sg11
F101515.6848431481
sbag2
(g3
g4
Ntp411
Rp412
(dp413
g8
F50.26829268292683
sg9
F-2.4390243902439024
sg10
I2
sg11
F101524.6070355787
sbag2
(g3
g4
Ntp414
Rp415
(dp416
g8
F50.26829268292683
sg9
F-2.073170731707317
sg10
I2
sg11
F101530.84747379304
sbag2
(g3
g4
Ntp417
Rp418
(dp419
g8
F50.26829268292683
sg9
F-1.707317073170732
sg10
I2
sg11
F101532.24912356217
sbag2
(g3
g4
Ntp420
Rp421
(dp422
g8
F50.26829268292683
sg9
F-1.3414634146341466
sg10
I2
sg11
F101531.983848296
sbag2
(g3
g4
Ntp423
Rp424
(dp425
g8
F50.26829268292683
sg9
F-0.975609756097561
sg10
I2
sg11
F101533.08272539698
sbag2
(g3
g4
Ntp426
Rp427
(dp428
g8
F50.26829268292683
sg9
F-0.6097560975609753
sg10
I2
sg11
F101535.44264827007
sbag2
(g3
g4
Ntp429
Rp430
(dp431
g8
F50.26829268292683
sg9
F-0.24390243902439046
sg10
I2
sg11
F101538.90521692472
sbag2
(g3
g4
Ntp432
Rp433
(dp434
g8
F50.26829268292683
sg9
F0.12195121951219523
sg10
I2
sg11
F101543.81046435863
sbag2
(g3
g4
Ntp435
Rp436
(dp437
g8
F50.26829268292683
sg9
F0.48780487804878003
sg10
I2
sg11
F101550.22404949098
sbag2
(g3
g4
Ntp438
Rp439
(dp440
g8
F50.26829268292683
sg9
F0.8536585365853657
sg10
I2
sg11
F101558.32217878096
sbag2
(g3
g4
Ntp441
Rp442
(dp443
g8
F50.26829268292683
sg9
F1.2195121951219514
sg10
I2
sg11
F101570.64222630732
sbag2
(g3
g4
Ntp444
Rp445
(dp446
g8
F50.26829268292683
sg9
F1.5853658536585362
sg10
I2
sg11
F101590.19698704351
sbag2
(g3
g4
Ntp447
Rp448
(dp449
g8
F50.26829268292683
sg9
F1.951219512195122
sg10
I2
sg11
F101596.41469801252
sbag2
(g3
g4
Ntp450
Rp451
(dp452
g8
F50.26829268292683
sg9
F2.3170731707317067
sg10
I2
sg11
F101588.27239001365
sbag2
(g3
g4
Ntp453
Rp454
(dp455
g8
F50.26829268292683
sg9
F2.6829268292682924
sg10
I2
sg11
F101595.89478599145
sbag2
(g3
g4
Ntp456
Rp457
(dp458
g8
F50.26829268292683
sg9
F3.048780487804878
sg10
I2
sg11
F101608.65782970852
sbag2
(g3
g4
Ntp459
Rp460
(dp461
g8
F50.26829268292683
sg9
F3.414634146341463
sg10
I2
sg11
F101602.70519932626
sbag2
(g3
g4
Ntp462
Rp463
(dp464
g8
F50.26829268292683
sg9
F3.7804878048780495
sg10
I2
sg11
F101592.34904116316
sbag2
(g3
g4
Ntp465
Rp466
(dp467
g8
F50.26829268292683
sg9
F4.146341463414634
sg10
I2
sg11
F101587.49890511698
sbag2
(g3
g4
Ntp468
Rp469
(dp470
g8
F50.26829268292683
sg9
F4.512195121951219
sg10
I2
sg11
F101585.08298224698
sbag2
(g3
g4
Ntp471
Rp472
(dp473
g8
F50.26829268292683
sg9
F4.878048780487804
sg10
I2
sg11
F101583.4412065065
sbag2
(g3
g4
Ntp474
Rp475
(dp476
g8
F50.26829268292683
sg9
F5.2439024390243905
sg10
I2
sg11
F101582.79236532781
sbag2
(g3
g4
Ntp477
Rp478
(dp479
g8
F50.26829268292683
sg9
F5.609756097560975
sg10
I2
sg11
F101583.13647993928
sbag2
(g3
g4
Ntp480
Rp481
(dp482
g8
F50.26829268292683
sg9
F5.97560975609756
sg10
I2
sg11
F101583.92527060988
sbag2
(g3
g4
Ntp483
Rp484
(dp485
g8
F50.26829268292683
sg9
F6.341463414634147
sg10
I2
sg11
F101584.65933940753
sbag2
(g3
g4
Ntp486
Rp487
(dp488
g8
F50.26829268292683
sg9
F6.7073170731707314
sg10
I2
sg11
F101585.25360747555
sbag2
(g3
g4
Ntp489
Rp490
(dp491
g8
F50.26829268292683
sg9
F7.073170731707316
sg10
I2
sg11
F101585.70340217835
sbag2
(g3
g4
Ntp492
Rp493
(dp494
g8
F50.26829268292683
sg9
F7.439024390243903
sg10
I2
sg11
F101585.59283320422
sbag2
(g3
g4
Ntp495
Rp496
(dp497
g8
F50.26829268292683
sg9
F7.804878048780488
sg10
I2
sg11
F101584.19044988668
sbag2
(g3
g4
Ntp498
Rp499
(dp500
g8
F50.26829268292683
sg9
F8.170731707317072
sg10
I2
sg11
F101581.04010751698
sbag2
(g3
g4
Ntp501
Rp502
(dp503
g8
F50.26829268292683
sg9
F8.536585365853659
sg10
I2
sg11
F101576.29791851465
sbag2
(g3
g4
Ntp504
Rp505
(dp506
g8
F50.26829268292683
sg9
F8.902439024390244
sg10
I2
sg11
F101570.5167548336
sbag2
(g3
g4
Ntp507
Rp508
(dp509
g8
F50.26829268292683
sg9
F9.268292682926829
sg10
I2
sg11
F101564.2799974743
sbag2
(g3
g4
Ntp510
Rp511
(dp512
g8
F50.26829268292683
sg9
F9.634146341463413
sg10
I2
sg11
F101558.01764998875
sbag2
(g3
g4
Ntp513
Rp514
(dp515
g8
F50.26829268292683
sg9
F10.0
sg10
I2
sg11
F101551.99190336504
sbaa(lp516
g2
(g3
g4
Ntp517
Rp518
(dp519
g8
F50.02439024390244
sg9
F-5.0
sg10
I2
sg11
F101496.1820429237
sbag2
(g3
g4
Ntp520
Rp521
(dp522
g8
F50.02439024390244
sg9
F-4.634146341463414
sg10
I2
sg11
F101493.99032785131
sbag2
(g3
g4
Ntp523
Rp524
(dp525
g8
F50.02439024390244
sg9
F-4.2682926829268295
sg10
I2
sg11
F101492.39738732076
sbag2
(g3
g4
Ntp526
Rp527
(dp528
g8
F50.02439024390244
sg9
F-3.902439024390244
sg10
I2
sg11
F101492.15858817128
sbag2
(g3
g4
Ntp529
Rp530
(dp531
g8
F50.02439024390244
sg9
F-3.5365853658536586
sg10
I2
sg11
F101494.89529944387
sbag2
(g3
g4
Ntp532
Rp533
(dp534
g8
F50.02439024390244
sg9
F-3.1707317073170733
sg10
I2
sg11
F101502.12882144806
sbag2
(g3
g4
Ntp535
Rp536
(dp537
g8
F50.02439024390244
sg9
F-2.8048780487804876
sg10
I2
sg11
F101513.32662941882
sbag2
(g3
g4
Ntp538
Rp539
(dp540
g8
F50.02439024390244
sg9
F-2.4390243902439024
sg10
I2
sg11
F101525.92155940454
sbag2
(g3
g4
Ntp541
Rp542
(dp543
g8
F50.02439024390244
sg9
F-2.073170731707317
sg10
I2
sg11
F101534.99327579555
sbag2
(g3
g4
Ntp544
Rp545
(dp546
g8
F50.02439024390244
sg9
F-1.707317073170732
sg10
I2
sg11
F101534.97706450857
sbag2
(g3
g4
Ntp547
Rp548
(dp549
g8
F50.02439024390244
sg9
F-1.3414634146341466
sg10
I2
sg11
F101532.16846500855
sbag2
(g3
g4
Ntp550
Rp551
(dp552
g8
F50.02439024390244
sg9
F-0.975609756097561
sg10
I2
sg11
F101532.29326870396
sbag2
(g3
g4
Ntp553
Rp554
(dp555
g8
F50.02439024390244
sg9
F-0.6097560975609753
sg10
I2
sg11
F101534.1247791455
sbag2
(g3
g4
Ntp556
Rp557
(dp558
g8
F50.02439024390244
sg9
F-0.24390243902439046
sg10
I2
sg11
F101537.18058441606
sbag2
(g3
g4
Ntp559
Rp560
(dp561
g8
F50.02439024390244
sg9
F0.12195121951219523
sg10
I2
sg11
F101542.09679032197
sbag2
(g3
g4
Ntp562
Rp563
(dp564
g8
F50.02439024390244
sg9
F0.48780487804878003
sg10
I2
sg11
F101548.65114543425
sbag2
(g3
g4
Ntp565
Rp566
(dp567
g8
F50.02439024390244
sg9
F0.8536585365853657
sg10
I2
sg11
F101556.02106995657
sbag2
(g3
g4
Ntp568
Rp569
(dp570
g8
F50.02439024390244
sg9
F1.2195121951219514
sg10
I2
sg11
F101566.70063039151
sbag2
(g3
g4
Ntp571
Rp572
(dp573
g8
F50.02439024390244
sg9
F1.5853658536585362
sg10
I2
sg11
F101588.52477064902
sbag2
(g3
g4
Ntp574
Rp575
(dp576
g8
F50.02439024390244
sg9
F1.951219512195122
sg10
I2
sg11
F101596.34248236104
sbag2
(g3
g4
Ntp577
Rp578
(dp579
g8
F50.02439024390244
sg9
F2.3170731707317067
sg10
I2
sg11
F101585.66581071384
sbag2
(g3
g4
Ntp580
Rp581
(dp582
g8
F50.02439024390244
sg9
F2.6829268292682924
sg10
I2
sg11
F101587.83772175478
sbag2
(g3
g4
Ntp583
Rp584
(dp585
g8
F50.02439024390244
sg9
F3.048780487804878
sg10
I2
sg11
F101594.68089907109
sbag2
(g3
g4
Ntp586
Rp587
(dp588
g8
F50.02439024390244
sg9
F3.414634146341463
sg10
I2
sg11
F101593.68435919641
sbag2
(g3
g4
Ntp589
Rp590
(dp591
g8
F50.02439024390244
sg9
F3.7804878048780495
sg10
I2
sg11
F101590.44710396726
sbag2
(g3
g4
Ntp592
Rp593
(dp594
g8
F50.02439024390244
sg9
F4.146341463414634
sg10
I2
sg11
F101589.4221196256
sbag2
(g3
g4
Ntp595
Rp596
(dp597
g8
F50.02439024390244
sg9
F4.512195121951219
sg10
I2
sg11
F101587.90464869679
sbag2
(g3
g4
Ntp598
Rp599
(dp600
g8
F50.02439024390244
sg9
F4.878048780487804
sg10
I2
sg11
F101586.08306118469
sbag2
(g3
g4
Ntp601
Rp602
(dp603
g8
F50.02439024390244
sg9
F5.2439024390243905
sg10
I2
sg11
F101585.6659706428
sbag2
(g3
g4
Ntp604
Rp605
(dp606
g8
F50.02439024390244
sg9
F5.609756097560975
sg10
I2
sg11
F101586.74750347483
sbag2
(g3
g4
Ntp607
Rp608
(dp609
g8
F50.02439024390244
sg9
F5.97560975609756
sg10
I2
sg11
F101588.24537172804
sbag2
(g3
g4
Ntp610
Rp611
(dp612
g8
F50.02439024390244
sg9
F6.341463414634147
sg10
I2
sg11
F101589.35022416544
sbag2
(g3
g4
Ntp613
Rp614
(dp615
g8
F50.02439024390244
sg9
F6.7073170731707314
sg10
I2
sg11
F101590.2567022401
sbag2
(g3
g4
Ntp616
Rp617
(dp618
g8
F50.02439024390244
sg9
F7.073170731707316
sg10
I2
sg11
F101591.31814473019
sbag2
(g3
g4
Ntp619
Rp620
(dp621
g8
F50.02439024390244
sg9
F7.439024390243903
sg10
I2
sg11
F101591.92988365241
sbag2
(g3
g4
Ntp622
Rp623
(dp624
g8
F50.02439024390244
sg9
F7.804878048780488
sg10
I2
sg11
F101590.76550743196
sbag2
(g3
g4
Ntp625
Rp626
(dp627
g8
F50.02439024390244
sg9
F8.170731707317072
sg10
I2
sg11
F101587.06205919491
sbag2
(g3
g4
Ntp628
Rp629
(dp630
g8
F50.02439024390244
sg9
F8.536585365853659
sg10
I2
sg11
F101581.21325580153
sbag2
(g3
g4
Ntp631
Rp632
(dp633
g8
F50.02439024390244
sg9
F8.902439024390244
sg10
I2
sg11
F101574.17742310668
sbag2
(g3
g4
Ntp634
Rp635
(dp636
g8
F50.02439024390244
sg9
F9.268292682926829
sg10
I2
sg11
F101566.79471881321
sbag2
(g3
g4
Ntp637
Rp638
(dp639
g8
F50.02439024390244
sg9
F9.634146341463413
sg10
I2
sg11
F101559.5836824876
sbag2
(g3
g4
Ntp640
Rp641
(dp642
g8
F50.02439024390244
sg9
F10.0
sg10
I2
sg11
F101552.80766184311
sbaa(lp643
g2
(g3
g4
Ntp644
Rp645
(dp646
g8
F49.78048780487805
sg9
F-5.0
sg10
I2
sg11
F101492.7625359271
sbag2
(g3
g4
Ntp647
Rp648
(dp649
g8
F49.78048780487805
sg9
F-4.634146341463414
sg10
I2
sg11
F101489.65398037397
sbag2
(g3
g4
Ntp650
Rp651
(dp652
g8
F49.78048780487805
sg9
F-4.2682926829268295
sg10
I2
sg11
F101486.7808119398
sbag2
(g3
g4
Ntp653
Rp654
(dp655
g8
F49.78048780487805
sg9
F-3.902439024390244
sg10
I2
sg11
F101484.73696918476
sbag2
(g3
g4
Ntp656
Rp657
(dp658
g8
F49.78048780487805
sg9
F-3.5365853658536586
sg10
I2
sg11
F101486.2089674132
sbag2
(g3
g4
Ntp659
Rp660
(dp661
g8
F49.78048780487805
sg9
F-3.1707317073170733
sg10
I2
sg11
F101494.62417003089
sbag2
(g3
g4
Ntp662
Rp663
(dp664
g8
F49.78048780487805
sg9
F-2.8048780487804876
sg10
I2
sg11
F101509.20740876353
sbag2
(g3
g4
Ntp665
Rp666
(dp667
g8
F49.78048780487805
sg9
F-2.4390243902439024
sg10
I2
sg11
F101525.93996135471
sbag2
(g3
g4
Ntp668
Rp669
(dp670
g8
F49.78048780487805
sg9
F-2.073170731707317
sg10
I2
sg11
F101538.60428660127
sbag2
(g3
g4
Ntp671
Rp672
(dp673
g8
F49.78048780487805
sg9
F-1.707317073170732
sg10
I2
sg11
F101537.1711329522
sbag2
(g3
g4
Ntp674
Rp675
(dp676
g8
F49.78048780487805
sg9
F-1.3414634146341466
sg10
I2
sg11
F101531.84180060269
sbag2
(g3
g4
Ntp677
Rp678
(dp679
g8
F49.78048780487805
sg9
F-0.975609756097561
sg10
I2
sg11
F101531.3158193756
sbag2
(g3
g4
Ntp680
Rp681
(dp682
g8
F49.78048780487805
sg9
F-0.6097560975609753
sg10
I2
sg11
F101532.57879538892
sbag2
(g3
g4
Ntp683
Rp684
(dp685
g8
F49.78048780487805
sg9
F-0.24390243902439046
sg10
I2
sg11
F101535.00087747666
sbag2
(g3
g4
Ntp686
Rp687
(dp688
g8
F49.78048780487805
sg9
F0.12195121951219523
sg10
I2
sg11
F101539.94458733732
sbag2
(g3
g4
Ntp689
Rp690
(dp691
g8
F49.78048780487805
sg9
F0.48780487804878003
sg10
I2
sg11
F101546.77951185755
sbag2
(g3
g4
Ntp692
Rp693
(dp694
g8
F49.78048780487805
sg9
F0.8536585365853657
sg10
I2
sg11
F101553.01160169256
sbag2
(g3
g4
Ntp695
Rp696
(dp697
g8
F49.78048780487805
sg9
F1.2195121951219514
sg10
I2
sg11
F101558.55220978521
sbag2
(g3
g4
Ntp698
Rp699
(dp700
g8
F49.78048780487805
sg9
F1.5853658536585362
sg10
I2
sg11
F101574.66914295706
sbag2
(g3
g4
Ntp701
Rp702
(dp703
g8
F49.78048780487805
sg9
F1.951219512195122
sg10
I2
sg11
F101583.85231024673
sbag2
(g3
g4
Ntp704
Rp705
(dp706
g8
F49.78048780487805
sg9
F2.3170731707317067
sg10
I2
sg11
F101579.72988985977
sbag2
(g3
g4
Ntp707
Rp708
(dp709
g8
F49.78048780487805
sg9
F2.6829268292682924
sg10
I2
sg11
F101580.7927514601
sbag2
(g3
g4
Ntp710
Rp711
(dp712
g8
F49.78048780487805
sg9
F3.048780487804878
sg10
I2
sg11
F101585.18083043223
sbag2
(g3
g4
Ntp713
Rp714
(dp715
g8
F49.78048780487805
sg9
F3.414634146341463
sg10
I2
sg11
F101587.86518901888
sbag2
(g3
g4
Ntp716
Rp717
(dp718
g8
F49.78048780487805
sg9
F3.7804878048780495
sg10
I2
sg11
F101590.87451877809
sbag2
(g3
g4
Ntp719
Rp720
(dp721
g8
F49.78048780487805
sg9
F4.146341463414634
sg10
I2
sg11
F101593.75219033421
sbag2
(g3
g4
Ntp722
Rp723
(dp724
g8
F49.78048780487805
sg9
F4.512195121951219
sg10
I2
sg11
F101591.89477303076
sbag2
(g3
g4
Ntp725
Rp726
(dp727
g8
F49.78048780487805
sg9
F4.878048780487804
sg10
I2
sg11
F101588.94549145254
sbag2
(g3
g4
Ntp728
Rp729
(dp730
g8
F49.78048780487805
sg9
F5.2439024390243905
sg10
I2
sg11
F101588.81361742994
sbag2
(g3
g4
Ntp731
Rp732
(dp733
g8
F49.78048780487805
sg9
F5.609756097560975
sg10
I2
sg11
F101591.13826113117
sbag2
(g3
g4
Ntp734
Rp735
(dp736
g8
F49.78048780487805
sg9
F5.97560975609756
sg10
I2
sg11
F101593.64362755771
sbag2
(g3
g4
Ntp737
Rp738
(dp739
g8
F49.78048780487805
sg9
F6.341463414634147
sg10
I2
sg11
F101594.92994423317
sbag2
(g3
g4
Ntp740
Rp741
(dp742
g8
F49.78048780487805
sg9
F6.7073170731707314
sg10
I2
sg11
F101595.93544266839
sbag2
(g3
g4
Ntp743
Rp744
(dp745
g8
F49.78048780487805
sg9
F7.073170731707316
sg10
I2
sg11
F101597.8588725586
sbag2
(g3
g4
Ntp746
Rp747
(dp748
g8
F49.78048780487805
sg9
F7.439024390243903
sg10
I2
sg11
F101599.7207608488
sbag2
(g3
g4
Ntp749
Rp750
(dp751
g8
F49.78048780487805
sg9
F7.804878048780488
sg10
I2
sg11
F101598.9785827959
sbag2
(g3
g4
Ntp752
Rp753
(dp754
g8
F49.78048780487805
sg9
F8.170731707317072
sg10
I2
sg11
F101594.3623545325
sbag2
(g3
g4
Ntp755
Rp756
(dp757
g8
F49.78048780487805
sg9
F8.536585365853659
sg10
I2
sg11
F101586.85748604195
sbag2
(g3
g4
Ntp758
Rp759
(dp760
g8
F49.78048780487805
sg9
F8.902439024390244
sg10
I2
sg11
F101578.13096184866
sbag2
(g3
g4
Ntp761
Rp762
(dp763
g8
F49.78048780487805
sg9
F9.268292682926829
sg10
I2
sg11
F101569.33595034324
sbag2
(g3
g4
Ntp764
Rp765
(dp766
g8
F49.78048780487805
sg9
F9.634146341463413
sg10
I2
sg11
F101561.03269268021
sbag2
(g3
g4
Ntp767
Rp768
(dp769
g8
F49.78048780487805
sg9
F10.0
sg10
I2
sg11
F101553.43550085172
sbaa(lp770
g2
(g3
g4
Ntp771
Rp772
(dp773
g8
F49.53658536585366
sg9
F-5.0
sg10
I2
sg11
F101489.29593231312
sbag2
(g3
g4
Ntp774
Rp775
(dp776
g8
F49.53658536585366
sg9
F-4.634146341463414
sg10
I2
sg11
F101485.24696704464
sbag2
(g3
g4
Ntp777
Rp778
(dp779
g8
F49.53658536585366
sg9
F-4.2682926829268295
sg10
I2
sg11
F101480.90047177798
sbag2
(g3
g4
Ntp780
Rp781
(dp782
g8
F49.53658536585366
sg9
F-3.902439024390244
sg10
I2
sg11
F101475.85305926508
sbag2
(g3
g4
Ntp783
Rp784
(dp785
g8
F49.53658536585366
sg9
F-3.5365853658536586
sg10
I2
sg11
F101474.21239425067
sbag2
(g3
g4
Ntp786
Rp787
(dp788
g8
F49.53658536585366
sg9
F-3.1707317073170733
sg10
I2
sg11
F101483.73855107943
sbag2
(g3
g4
Ntp789
Rp790
(dp791
g8
F49.53658536585366
sg9
F-2.8048780487804876
sg10
I2
sg11
F101502.43128188029
sbag2
(g3
g4
Ntp792
Rp793
(dp794
g8
F49.53658536585366
sg9
F-2.4390243902439024
sg10
I2
sg11
F101522.0852574325
sbag2
(g3
g4
Ntp795
Rp796
(dp797
g8
F49.53658536585366
sg9
F-2.073170731707317
sg10
I2
sg11
F101536.01696718713
sbag2
(g3
g4
Ntp798
Rp799
(dp800
g8
F49.53658536585366
sg9
F-1.707317073170732
sg10
I2
sg11
F101535.09421123708
sbag2
(g3
g4
Ntp801
Rp802
(dp803
g8
F49.53658536585366
sg9
F-1.3414634146341466
sg10
I2
sg11
F101530.29254750088
sbag2
(g3
g4
Ntp804
Rp805
(dp806
g8
F49.53658536585366
sg9
F-0.975609756097561
sg10
I2
sg11
F101530.18977940692
sbag2
(g3
g4
Ntp807
Rp808
(dp809
g8
F49.53658536585366
sg9
F-0.6097560975609753
sg10
I2
sg11
F101531.02898624852
sbag2
(g3
g4
Ntp810
Rp811
(dp812
g8
F49.53658536585366
sg9
F-0.24390243902439046
sg10
I2
sg11
F101532.55319847034
sbag2
(g3
g4
Ntp813
Rp814
(dp815
g8
F49.53658536585366
sg9
F0.12195121951219523
sg10
I2
sg11
F101537.4392932119
sbag2
(g3
g4
Ntp816
Rp817
(dp818
g8
F49.53658536585366
sg9
F0.48780487804878003
sg10
I2
sg11
F101544.71464859802
sbag2
(g3
g4
Ntp819
Rp820
(dp821
g8
F49.53658536585366
sg9
F0.8536585365853657
sg10
I2
sg11
F101550.69813571621
sbag2
(g3
g4
Ntp822
Rp823
(dp824
g8
F49.53658536585366
sg9
F1.2195121951219514
sg10
I2
sg11
F101551.37217551423
sbag2
(g3
g4
Ntp825
Rp826
(dp827
g8
F49.53658536585366
sg9
F1.5853658536585362
sg10
I2
sg11
F101562.10393902996
sbag2
(g3
g4
Ntp828
Rp829
(dp830
g8
F49.53658536585366
sg9
F1.951219512195122
sg10
I2
sg11
F101571.58490391778
sbag2
(g3
g4
Ntp831
Rp832
(dp833
g8
F49.53658536585366
sg9
F2.3170731707317067
sg10
I2
sg11
F101572.8128291115
sbag2
(g3
g4
Ntp834
Rp835
(dp836
g8
F49.53658536585366
sg9
F2.6829268292682924
sg10
I2
sg11
F101574.95318088845
sbag2
(g3
g4
Ntp837
Rp838
(dp839
g8
F49.53658536585366
sg9
F3.048780487804878
sg10
I2
sg11
F101579.53470470029
sbag2
(g3
g4
Ntp840
Rp841
(dp842
g8
F49.53658536585366
sg9
F3.414634146341463
sg10
I2
sg11
F101585.3277534764
sbag2
(g3
g4
Ntp843
Rp844
(dp845
g8
F49.53658536585366
sg9
F3.7804878048780495
sg10
I2
sg11
F101594.08521629761
sbag2
(g3
g4
Ntp846
Rp847
(dp848
g8
F49.53658536585366
sg9
F4.146341463414634
sg10
I2
sg11
F101601.36081142258
sbag2
(g3
g4
Ntp849
Rp850
(dp851
g8
F49.53658536585366
sg9
F4.512195121951219
sg10
I2
sg11
F101596.80026299534
sbag2
(g3
g4
Ntp852
Rp853
(dp854
g8
F49.53658536585366
sg9
F4.878048780487804
sg10
I2
sg11
F101591.62491210025
sbag2
(g3
g4
Ntp855
Rp856
(dp857
g8
F49.53658536585366
sg9
F5.2439024390243905
sg10
I2
sg11
F101592.22129932287
sbag2
(g3
g4
Ntp858
Rp859
(dp860
g8
F49.53658536585366
sg9
F5.609756097560975
sg10
I2
sg11
F101596.78049264585
sbag2
(g3
g4
Ntp861
Rp862
(dp863
g8
F49.53658536585366
sg9
F5.97560975609756
sg10
I2
sg11
F101600.77977401932
sbag2
(g3
g4
Ntp864
Rp865
(dp866
g8
F49.53658536585366
sg9
F6.341463414634147
sg10
I2
sg11
F101601.66015593772
sbag2
(g3
g4
Ntp867
Rp868
(dp869
g8
F49.53658536585366
sg9
F6.7073170731707314
sg10
I2
sg11
F101602.18984542736
sbag2
(g3
g4
Ntp870
Rp871
(dp872
g8
F49.53658536585366
sg9
F7.073170731707316
sg10
I2
sg11
F101605.38658914893
sbag2
(g3
g4
Ntp873
Rp874
(dp875
g8
F49.53658536585366
sg9
F7.439024390243903
sg10
I2
sg11
F101609.47740028333
sbag2
(g3
g4
Ntp876
Rp877
(dp878
g8
F49.53658536585366
sg9
F7.804878048780488
sg10
I2
sg11
F101609.41876982174
sbag2
(g3
g4
Ntp879
Rp880
(dp881
g8
F49.53658536585366
sg9
F8.170731707317072
sg10
I2
sg11
F101603.1755906672
sbag2
(g3
g4
Ntp882
Rp883
(dp884
g8
F49.53658536585366
sg9
F8.536585365853659
sg10
I2
sg11
F101593.16808882724
sbag2
(g3
g4
Ntp885
Rp886
(dp887
g8
F49.53658536585366
sg9
F8.902439024390244
sg10
I2
sg11
F101582.21787883247
sbag2
(g3
g4
Ntp888
Rp889
(dp890
g8
F49.53658536585366
sg9
F9.268292682926829
sg10
I2
sg11
F101571.74902427538
sbag2
(g3
g4
Ntp891
Rp892
(dp893
g8
F49.53658536585366
sg9
F9.634146341463413
sg10
I2
sg11
F101562.24037894142
sbag2
(g3
g4
Ntp894
Rp895
(dp896
g8
F49.53658536585366
sg9
F10.0
sg10
I2
sg11
F101553.780413203
sbaa(lp897
g2
(g3
g4
Ntp898
Rp899
(dp900
g8
F49.292682926829265
sg9
F-5.0
sg10
I2
sg11
F101485.9175529594
sbag2
(g3
g4
Ntp901
Rp902
(dp903
g8
F49.292682926829265
sg9
F-4.634146341463414
sg10
I2
sg11
F101481.0655782984
sbag2
(g3
g4
Ntp904
Rp905
(dp906
g8
F49.292682926829265
sg9
F-4.2682926829268295
sg10
I2
sg11
F101475.55351026129
sbag2
(g3
g4
Ntp907
Rp908
(dp909
g8
F49.292682926829265
sg9
F-3.902439024390244
sg10
I2
sg11
F101466.14459044082
sbag2
(g3
g4
Ntp910
Rp911
(dp912
g8
F49.292682926829265
sg9
F-3.5365853658536586
sg10
I2
sg11
F101458.10933360737
sbag2
(g3
g4
Ntp913
Rp914
(dp915
g8
F49.292682926829265
sg9
F-3.1707317073170733
sg10
I2
sg11
F101469.14355820211
sbag2
(g3
g4
Ntp916
Rp917
(dp918
g8
F49.292682926829265
sg9
F-2.8048780487804876
sg10
I2
sg11
F101493.50061210521
sbag2
(g3
g4
Ntp919
Rp920
(dp921
g8
F49.292682926829265
sg9
F-2.4390243902439024
sg10
I2
sg11
F101514.56721892518
sbag2
(g3
g4
Ntp922
Rp923
(dp924
g8
F49.292682926829265
sg9
F-2.073170731707317
sg10
I2
sg11
F101527.0556541614
sbag2
(g3
g4
Ntp925
Rp926
(dp927
g8
F49.292682926829265
sg9
F-1.707317073170732
sg10
I2
sg11
F101528.72092854539
sbag2
(g3
g4
Ntp928
Rp929
(dp930
g8
F49.292682926829265
sg9
F-1.3414634146341466
sg10
I2
sg11
F101527.57516226682
sbag2
(g3
g4
Ntp931
Rp932
(dp933
g8
F49.292682926829265
sg9
F-0.975609756097561
sg10
I2
sg11
F101529.05583551558
sbag2
(g3
g4
Ntp934
Rp935
(dp936
g8
F49.292682926829265
sg9
F-0.6097560975609753
sg10
I2
sg11
F101530.11284594957
sbag2
(g3
g4
Ntp937
Rp938
(dp939
g8
F49.292682926829265
sg9
F-0.24390243902439046
sg10
I2
sg11
F101530.70987644432
sbag2
(g3
g4
Ntp940
Rp941
(dp942
g8
F49.292682926829265
sg9
F0.12195121951219523
sg10
I2
sg11
F101534.70276551884
sbag2
(g3
g4
Ntp943
Rp944
(dp945
g8
F49.292682926829265
sg9
F0.48780487804878003
sg10
I2
sg11
F101542.08007175298
sbag2
(g3
g4
Ntp946
Rp947
(dp948
g8
F49.292682926829265
sg9
F0.8536585365853657
sg10
I2
sg11
F101549.34998452451
sbag2
(g3
g4
Ntp949
Rp950
(dp951
g8
F49.292682926829265
sg9
F1.2195121951219514
sg10
I2
sg11
F101550.33233832936
sbag2
(g3
g4
Ntp952
Rp953
(dp954
g8
F49.292682926829265
sg9
F1.5853658536585362
sg10
I2
sg11
F101557.36264599863
sbag2
(g3
g4
Ntp955
Rp956
(dp957
g8
F49.292682926829265
sg9
F1.951219512195122
sg10
I2
sg11
F101564.79052006928
sbag2
(g3
g4
Ntp958
Rp959
(dp960
g8
F49.292682926829265
sg9
F2.3170731707317067
sg10
I2
sg11
F101567.06786306387
sbag2
(g3
g4
Ntp961
Rp962
(dp963
g8
F49.292682926829265
sg9
F2.6829268292682924
sg10
I2
sg11
F101570.07467411573
sbag2
(g3
g4
Ntp964
Rp965
(dp966
g8
F49.292682926829265
sg9
F3.048780487804878
sg10
I2
sg11
F101575.8633445441
sbag2
(g3
g4
Ntp967
Rp968
(dp969
g8
F49.292682926829265
sg9
F3.414634146341463
sg10
I2
sg11
F101584.03852843327
sbag2
(g3
g4
Ntp970
Rp971
(dp972
g8
F49.292682926829265
sg9
F3.7804878048780495
sg10
I2
sg11
F101597.1837794777
sbag2
(g3
g4
Ntp973
Rp974
(dp975
g8
F49.292682926829265
sg9
F4.146341463414634
sg10
I2
sg11
F101609.1696344297
sbag2
(g3
g4
Ntp976
Rp977
(dp978
g8
F49.292682926829265
sg9
F4.512195121951219
sg10
I2
sg11
F101600.34739402398
sbag2
(g3
g4
Ntp979
Rp980
(dp981
g8
F49.292682926829265
sg9
F4.878048780487804
sg10
I2
sg11
F101593.4098695518
sbag2
(g3
g4
Ntp982
Rp983
(dp984
g8
F49.292682926829265
sg9
F5.2439024390243905
sg10
I2
sg11
F101595.88522113548
sbag2
(g3
g4
Ntp985
Rp986
(dp987
g8
F49.292682926829265
sg9
F5.609756097560975
sg10
I2
sg11
F101604.41749919328
sbag2
(g3
g4
Ntp988
Rp989
(dp990
g8
F49.292682926829265
sg9
F5.97560975609756
sg10
I2
sg11
F101610.75967816362
sbag2
(g3
g4
Ntp991
Rp992
(dp993
g8
F49.292682926829265
sg9
F6.341463414634147
sg10
I2
sg11
F101609.81558264584
sbag2
(g3
g4
Ntp994
Rp995
(dp996
g8
F49.292682926829265
sg9
F6.7073170731707314
sg10
I2
sg11
F101608.65628980548
sbag2
(g3
g4
Ntp997
Rp998
(dp999
g8
F49.292682926829265
sg9
F7.073170731707316
sg10
I2
sg11
F101613.79809255393
sbag2
(g3
g4
Ntp1000
Rp1001
(dp1002
g8
F49.292682926829265
sg9
F7.439024390243903
sg10
I2
sg11
F101621.8549461723
sbag2
(g3
g4
Ntp1003
Rp1004
(dp1005
g8
F49.292682926829265
sg9
F7.804878048780488
sg10
I2
sg11
F101622.75292365439
sbag2
(g3
g4
Ntp1006
Rp1007
(dp1008
g8
F49.292682926829265
sg9
F8.170731707317072
sg10
I2
sg11
F101613.50239882641
sbag2
(g3
g4
Ntp1009
Rp1010
(dp1011
g8
F49.292682926829265
sg9
F8.536585365853659
sg10
I2
sg11
F101599.8212665498
sbag2
(g3
g4
Ntp1012
Rp1013
(dp1014
g8
F49.292682926829265
sg9
F8.902439024390244
sg10
I2
sg11
F101586.12251828503
sbag2
(g3
g4
Ntp1015
Rp1016
(dp1017
g8
F49.292682926829265
sg9
F9.268292682926829
sg10
I2
sg11
F101573.80262318786
sbag2
(g3
g4
Ntp1018
Rp1019
(dp1020
g8
F49.292682926829265
sg9
F9.634146341463413
sg10
I2
sg11
F101563.0461177106
sbag2
(g3
g4
Ntp1021
Rp1022
(dp1023
g8
F49.292682926829265
sg9
F10.0
sg10
I2
sg11
F101553.72969111697
sbaa(lp1024
g2
(g3
g4
Ntp1025
Rp1026
(dp1027
g8
F49.048780487804876
sg9
F-5.0
sg10
I2
sg11
F101482.7910280343
sbag2
(g3
g4
Ntp1028
Rp1029
(dp1030
g8
F49.048780487804876
sg9
F-4.634146341463414
sg10
I2
sg11
F101477.34232285152
sbag2
(g3
g4
Ntp1031
Rp1032
(dp1033
g8
F49.048780487804876
sg9
F-4.2682926829268295
sg10
I2
sg11
F101471.93210175283
sbag2
(g3
g4
Ntp1034
Rp1035
(dp1036
g8
F49.048780487804876
sg9
F-3.902439024390244
sg10
I2
sg11
F101457.94056572623
sbag2
(g3
g4
Ntp1037
Rp1038
(dp1039
g8
F49.048780487804876
sg9
F-3.5365853658536586
sg10
I2
sg11
F101439.7653534983
sbag2
(g3
g4
Ntp1040
Rp1041
(dp1042
g8
F49.048780487804876
sg9
F-3.1707317073170733
sg10
I2
sg11
F101453.80489939233
sbag2
(g3
g4
Ntp1043
Rp1044
(dp1045
g8
F49.048780487804876
sg9
F-2.8048780487804876
sg10
I2
sg11
F101485.22269412459
sbag2
(g3
g4
Ntp1046
Rp1047
(dp1048
g8
F49.048780487804876
sg9
F-2.4390243902439024
sg10
I2
sg11
F101506.96382138057
sbag2
(g3
g4
Ntp1049
Rp1050
(dp1051
g8
F49.048780487804876
sg9
F-2.073170731707317
sg10
I2
sg11
F101517.85604587701
sbag2
(g3
g4
Ntp1052
Rp1053
(dp1054
g8
F49.048780487804876
sg9
F-1.707317073170732
sg10
I2
sg11
F101521.65932744723
sbag2
(g3
g4
Ntp1055
Rp1056
(dp1057
g8
F49.048780487804876
sg9
F-1.3414634146341466
sg10
I2
sg11
F101524.14414386418
sbag2
(g3
g4
Ntp1058
Rp1059
(dp1060
g8
F49.048780487804876
sg9
F-0.975609756097561
sg10
I2
sg11
F101527.67466434644
sbag2
(g3
g4
Ntp1061
Rp1062
(dp1063
g8
F49.048780487804876
sg9
F-0.6097560975609753
sg10
I2
sg11
F101529.78908407391
sbag2
(g3
g4
Ntp1064
Rp1065
(dp1066
g8
F49.048780487804876
sg9
F-0.24390243902439046
sg10
I2
sg11
F101529.88147531264
sbag2
(g3
g4
Ntp1067
Rp1068
(dp1069
g8
F49.048780487804876
sg9
F0.12195121951219523
sg10
I2
sg11
F101530.96507886729
sbag2
(g3
g4
Ntp1070
Rp1071
(dp1072
g8
F49.048780487804876
sg9
F0.48780487804878003
sg10
I2
sg11
F101538.10637436355
sbag2
(g3
g4
Ntp1073
Rp1074
(dp1075
g8
F49.048780487804876
sg9
F0.8536585365853657
sg10
I2
sg11
F101547.2119239509
sbag2
(g3
g4
Ntp1076
Rp1077
(dp1078
g8
F49.048780487804876
sg9
F1.2195121951219514
sg10
I2
sg11
F101551.45285685669
sbag2
(g3
g4
Ntp1079
Rp1080
(dp1081
g8
F49.048780487804876
sg9
F1.5853658536585362
sg10
I2
sg11
F101556.61547792159
sbag2
(g3
g4
Ntp1082
Rp1083
(dp1084
g8
F49.048780487804876
sg9
F1.951219512195122
sg10
I2
sg11
F101561.77026109488
sbag2
(g3
g4
Ntp1085
Rp1086
(dp1087
g8
F49.048780487804876
sg9
F2.3170731707317067
sg10
I2
sg11
F101562.82181857029
sbag2
(g3
g4
Ntp1088
Rp1089
(dp1090
g8
F49.048780487804876
sg9
F2.6829268292682924
sg10
I2
sg11
F101565.98726450831
sbag2
(g3
g4
Ntp1091
Rp1092
(dp1093
g8
F49.048780487804876
sg9
F3.048780487804878
sg10
I2
sg11
F101573.1739341974
sbag2
(g3
g4
Ntp1094
Rp1095
(dp1096
g8
F49.048780487804876
sg9
F3.414634146341463
sg10
I2
sg11
F101582.38042894995
sbag2
(g3
g4
Ntp1097
Rp1098
(dp1099
g8
F49.048780487804876
sg9
F3.7804878048780495
sg10
I2
sg11
F101595.08588707379
sbag2
(g3
g4
Ntp1100
Rp1101
(dp1102
g8
F49.048780487804876
sg9
F4.146341463414634
sg10
I2
sg11
F101606.65749835725
sbag2
(g3
g4
Ntp1103
Rp1104
(dp1105
g8
F49.048780487804876
sg9
F4.512195121951219
sg10
I2
sg11
F101598.81752530887
sbag2
(g3
g4
Ntp1106
Rp1107
(dp1108
g8
F49.048780487804876
sg9
F4.878048780487804
sg10
I2
sg11
F101593.81814534169
sbag2
(g3
g4
Ntp1109
Rp1110
(dp1111
g8
F49.048780487804876
sg9
F5.2439024390243905
sg10
I2
sg11
F101599.67149932223
sbag2
(g3
g4
Ntp1112
Rp1113
(dp1114
g8
F49.048780487804876
sg9
F5.609756097560975
sg10
I2
sg11
F101614.64330869855
sbag2
(g3
g4
Ntp1115
Rp1116
(dp1117
g8
F49.048780487804876
sg9
F5.97560975609756
sg10
I2
sg11
F101624.87283651216
sbag2
(g3
g4
Ntp1118
Rp1119
(dp1120
g8
F49.048780487804876
sg9
F6.341463414634147
sg10
I2
sg11
F101619.32506015713
sbag2
(g3
g4
Ntp1121
Rp1122
(dp1123
g8
F49.048780487804876
sg9
F6.7073170731707314
sg10
I2
sg11
F101614.54576418805
sbag2
(g3
g4
Ntp1124
Rp1125
(dp1126
g8
F49.048780487804876
sg9
F7.073170731707316
sg10
I2
sg11
F101622.53445586108
sbag2
(g3
g4
Ntp1127
Rp1128
(dp1129
g8
F49.048780487804876
sg9
F7.439024390243903
sg10
I2
sg11
F101637.21455177426
sbag2
(g3
g4
Ntp1130
Rp1131
(dp1132
g8
F49.048780487804876
sg9
F7.804878048780488
sg10
I2
sg11
F101639.1348932507
sbag2
(g3
g4
Ntp1133
Rp1134
(dp1135
g8
F49.048780487804876
sg9
F8.170731707317072
sg10
I2
sg11
F101624.57185637152
sbag2
(g3
g4
Ntp1136
Rp1137
(dp1138
g8
F49.048780487804876
sg9
F8.536585365853659
sg10
I2
sg11
F101606.03322013088
sbag2
(g3
g4
Ntp1139
Rp1140
(dp1141
g8
F49.048780487804876
sg9
F8.902439024390244
sg10
I2
sg11
F101589.34213966798
sbag2
(g3
g4
Ntp1142
Rp1143
(dp1144
g8
F49.048780487804876
sg9
F9.268292682926829
sg10
I2
sg11
F101575.19620952742
sbag2
(g3
g4
Ntp1145
Rp1146
(dp1147
g8
F49.048780487804876
sg9
F9.634146341463413
sg10
I2
sg11
F101563.26264570492
sbag2
(g3
g4
Ntp1148
Rp1149
(dp1150
g8
F49.048780487804876
sg9
F10.0
sg10
I2
sg11
F101553.15955007181
sbaa(lp1151
g2
(g3
g4
Ntp1152
Rp1153
(dp1154
g8
F48.80487804878049
sg9
F-5.0
sg10
I2
sg11
F101480.20604265116
sbag2
(g3
g4
Ntp1155
Rp1156
(dp1157
g8
F48.80487804878049
sg9
F-4.634146341463414
sg10
I2
sg11
F101474.1246965413
sbag2
(g3
g4
Ntp1158
Rp1159
(dp1160
g8
F48.80487804878049
sg9
F-4.2682926829268295
sg10
I2
sg11
F101470.67614002452
sbag2
(g3
g4
Ntp1161
Rp1162
(dp1163
g8
F48.80487804878049
sg9
F-3.902439024390244
sg10
I2
sg11
F101456.0343559291
sbag2
(g3
g4
Ntp1164
Rp1165
(dp1166
g8
F48.80487804878049
sg9
F-3.5365853658536586
sg10
I2
sg11
F101430.98310636925
sbag2
(g3
g4
Ntp1167
Rp1168
(dp1169
g8
F48.80487804878049
sg9
F-3.1707317073170733
sg10
I2
sg11
F101447.43035451783
sbag2
(g3
g4
Ntp1170
Rp1171
(dp1172
g8
F48.80487804878049
sg9
F-2.8048780487804876
sg10
I2
sg11
F101481.36324235999
sbag2
(g3
g4
Ntp1173
Rp1174
(dp1175
g8
F48.80487804878049
sg9
F-2.4390243902439024
sg10
I2
sg11
F101501.9035434405
sbag2
(g3
g4
Ntp1176
Rp1177
(dp1178
g8
F48.80487804878049
sg9
F-2.073170731707317
sg10
I2
sg11
F101510.80277613294
sbag2
(g3
g4
Ntp1179
Rp1180
(dp1181
g8
F48.80487804878049
sg9
F-1.707317073170732
sg10
I2
sg11
F101514.77930201366
sbag2
(g3
g4
Ntp1182
Rp1183
(dp1184
g8
F48.80487804878049
sg9
F-1.3414634146341466
sg10
I2
sg11
F101519.87983253447
sbag2
(g3
g4
Ntp1185
Rp1186
(dp1187
g8
F48.80487804878049
sg9
F-0.975609756097561
sg10
I2
sg11
F101525.56333812175
sbag2
(g3
g4
Ntp1188
Rp1189
(dp1190
g8
F48.80487804878049
sg9
F-0.6097560975609753
sg10
I2
sg11
F101528.39284693004
sbag2
(g3
g4
Ntp1191
Rp1192
(dp1193
g8
F48.80487804878049
sg9
F-0.24390243902439046
sg10
I2
sg11
F101526.81123931566
sbag2
(g3
g4
Ntp1194
Rp1195
(dp1196
g8
F48.80487804878049
sg9
F0.12195121951219523
sg10
I2
sg11
F101523.27802907507
sbag2
(g3
g4
Ntp1197
Rp1198
(dp1199
g8
F48.80487804878049
sg9
F0.48780487804878003
sg10
I2
sg11
F101532.38114355614
sbag2
(g3
g4
Ntp1200
Rp1201
(dp1202
g8
F48.80487804878049
sg9
F0.8536585365853657
sg10
I2
sg11
F101544.25183741924
sbag2
(g3
g4
Ntp1203
Rp1204
(dp1205
g8
F48.80487804878049
sg9
F1.2195121951219514
sg10
I2
sg11
F101551.17526018234
sbag2
(g3
g4
Ntp1206
Rp1207
(dp1208
g8
F48.80487804878049
sg9
F1.5853658536585362
sg10
I2
sg11
F101556.54345980518
sbag2
(g3
g4
Ntp1209
Rp1210
(dp1211
g8
F48.80487804878049
sg9
F1.951219512195122
sg10
I2
sg11
F101560.70805315199
sbag2
(g3
g4
Ntp1212
Rp1213
(dp1214
g8
F48.80487804878049
sg9
F2.3170731707317067
sg10
I2
sg11
F101560.33671323062
sbag2
(g3
g4
Ntp1215
Rp1216
(dp1217
g8
F48.80487804878049
sg9
F2.6829268292682924
sg10
I2
sg11
F101563.34826986905
sbag2
(g3
g4
Ntp1218
Rp1219
(dp1220
g8
F48.80487804878049
sg9
F3.048780487804878
sg10
I2
sg11
F101571.44935382988
sbag2
(g3
g4
Ntp1221
Rp1222
(dp1223
g8
F48.80487804878049
sg9
F3.414634146341463
sg10
I2
sg11
F101580.53453597992
sbag2
(g3
g4
Ntp1224
Rp1225
(dp1226
g8
F48.80487804878049
sg9
F3.7804878048780495
sg10
I2
sg11
F101589.4462729076
sbag2
(g3
g4
Ntp1227
Rp1228
(dp1229
g8
F48.80487804878049
sg9
F4.146341463414634
sg10
I2
sg11
F101595.06883968672
sbag2
(g3
g4
Ntp1230
Rp1231
(dp1232
g8
F48.80487804878049
sg9
F4.512195121951219
sg10
I2
sg11
F101593.5366659447
sbag2
(g3
g4
Ntp1233
Rp1234
(dp1235
g8
F48.80487804878049
sg9
F4.878048780487804
sg10
I2
sg11
F101593.14871163627
sbag2
(g3
g4
Ntp1236
Rp1237
(dp1238
g8
F48.80487804878049
sg9
F5.2439024390243905
sg10
I2
sg11
F101602.74520924233
sbag2
(g3
g4
Ntp1239
Rp1240
(dp1241
g8
F48.80487804878049
sg9
F5.609756097560975
sg10
I2
sg11
F101625.67332832301
sbag2
(g3
g4
Ntp1242
Rp1243
(dp1244
g8
F48.80487804878049
sg9
F5.97560975609756
sg10
I2
sg11
F101641.7098780938
sbag2
(g3
g4
Ntp1245
Rp1246
(dp1247
g8
F48.80487804878049
sg9
F6.341463414634147
sg10
I2
sg11
F101628.37022506309
sbag2
(g3
g4
Ntp1248
Rp1249
(dp1250
g8
F48.80487804878049
sg9
F6.7073170731707314
sg10
I2
sg11
F101618.60082030043
sbag2
(g3
g4
Ntp1251
Rp1252
(dp1253
g8
F48.80487804878049
sg9
F7.073170731707316
sg10
I2
sg11
F101629.89342280157
sbag2
(g3
g4
Ntp1254
Rp1255
(dp1256
g8
F48.80487804878049
sg9
F7.439024390243903
sg10
I2
sg11
F101653.55483592453
sbag2
(g3
g4
Ntp1257
Rp1258
(dp1259
g8
F48.80487804878049
sg9
F7.804878048780488
sg10
I2
sg11
F101656.11586784925
sbag2
(g3
g4
Ntp1260
Rp1261
(dp1262
g8
F48.80487804878049
sg9
F8.170731707317072
sg10
I2
sg11
F101633.94927827329
sbag2
(g3
g4
Ntp1263
Rp1264
(dp1265
g8
F48.80487804878049
sg9
F8.536585365853659
sg10
I2
sg11
F101610.47809234486
sbag2
(g3
g4
Ntp1266
Rp1267
(dp1268
g8
F48.80487804878049
sg9
F8.902439024390244
sg10
I2
sg11
F101591.24519018931
sbag2
(g3
g4
Ntp1269
Rp1270
(dp1271
g8
F48.80487804878049
sg9
F9.268292682926829
sg10
I2
sg11
F101575.60185897187
sbag2
(g3
g4
Ntp1272
Rp1273
(dp1274
g8
F48.80487804878049
sg9
F9.634146341463413
sg10
I2
sg11
F101562.69732836669
sbag2
(g3
g4
Ntp1275
Rp1276
(dp1277
g8
F48.80487804878049
sg9
F10.0
sg10
I2
sg11
F101551.94575770607
sbaa(lp1278
g2
(g3
g4
Ntp1279
Rp1280
(dp1281
g8
F48.5609756097561
sg9
F-5.0
sg10
I2
sg11
F101478.75761346721
sbag2
(g3
g4
Ntp1282
Rp1283
(dp1284
g8
F48.5609756097561
sg9
F-4.634146341463414
sg10
I2
sg11
F101471.84684322398
sbag2
(g3
g4
Ntp1285
Rp1286
(dp1287
g8
F48.5609756097561
sg9
F-4.2682926829268295
sg10
I2
sg11
F101470.40903888302
sbag2
(g3
g4
Ntp1288
Rp1289
(dp1290
g8
F48.5609756097561
sg9
F-3.902439024390244
sg10
I2
sg11
F101461.96171316155
sbag2
(g3
g4
Ntp1291
Rp1292
(dp1293
g8
F48.5609756097561
sg9
F-3.5365853658536586
sg10
I2
sg11
F101443.96313257502
sbag2
(g3
g4
Ntp1294
Rp1295
(dp1296
g8
F48.5609756097561
sg9
F-3.1707317073170733
sg10
I2
sg11
F101456.46369091113
sbag2
(g3
g4
Ntp1297
Rp1298
(dp1299
g8
F48.5609756097561
sg9
F-2.8048780487804876
sg10
I2
sg11
F101482.9516918162
sbag2
(g3
g4
Ntp1300
Rp1301
(dp1302
g8
F48.5609756097561
sg9
F-2.4390243902439024
sg10
I2
sg11
F101499.56840142133
sbag2
(g3
g4
Ntp1303
Rp1304
(dp1305
g8
F48.5609756097561
sg9
F-2.073170731707317
sg10
I2
sg11
F101505.15447479028
sbag2
(g3
g4
Ntp1306
Rp1307
(dp1308
g8
F48.5609756097561
sg9
F-1.707317073170732
sg10
I2
sg11
F101506.77300692126
sbag2
(g3
g4
Ntp1309
Rp1310
(dp1311
g8
F48.5609756097561
sg9
F-1.3414634146341466
sg10
I2
sg11
F101514.42839397075
sbag2
(g3
g4
Ntp1312
Rp1313
(dp1314
g8
F48.5609756097561
sg9
F-0.975609756097561
sg10
I2
sg11
F101523.0046819426
sbag2
(g3
g4
Ntp1315
Rp1316
(dp1317
g8
F48.5609756097561
sg9
F-0.6097560975609753
sg10
I2
sg11
F101526.56522551425
sbag2
(g3
g4
Ntp1318
Rp1319
(dp1320
g8
F48.5609756097561
sg9
F-0.24390243902439046
sg10
I2
sg11
F101522.00413783552
sbag2
(g3
g4
Ntp1321
Rp1322
(dp1323
g8
F48.5609756097561
sg9
F0.12195121951219523
sg10
I2
sg11
F101512.15412693469
sbag2
(g3
g4
Ntp1324
Rp1325
(dp1326
g8
F48.5609756097561
sg9
F0.48780487804878003
sg10
I2
sg11
F101527.04159439675
sbag2
(g3
g4
Ntp1327
Rp1328
(dp1329
g8
F48.5609756097561
sg9
F0.8536585365853657
sg10
I2
sg11
F101542.24020918891
sbag2
(g3
g4
Ntp1330
Rp1331
(dp1332
g8
F48.5609756097561
sg9
F1.2195121951219514
sg10
I2
sg11
F101550.67935211756
sbag2
(g3
g4
Ntp1333
Rp1334
(dp1335
g8
F48.5609756097561
sg9
F1.5853658536585362
sg10
I2
sg11
F101556.60914794478
sbag2
(g3
g4
Ntp1336
Rp1337
(dp1338
g8
F48.5609756097561
sg9
F1.951219512195122
sg10
I2
sg11
F101560.64883853332
sbag2
(g3
g4
Ntp1339
Rp1340
(dp1341
g8
F48.5609756097561
sg9
F2.3170731707317067
sg10
I2
sg11
F101560.70117712676
sbag2
(g3
g4
Ntp1342
Rp1343
(dp1344
g8
F48.5609756097561
sg9
F2.6829268292682924
sg10
I2
sg11
F101563.56537629516
sbag2
(g3
g4
Ntp1345
Rp1346
(dp1347
g8
F48.5609756097561
sg9
F3.048780487804878
sg10
I2
sg11
F101570.95858996513
sbag2
(g3
g4
Ntp1348
Rp1349
(dp1350
g8
F48.5609756097561
sg9
F3.414634146341463
sg10
I2
sg11
F101579.44471003869
sbag2
(g3
g4
Ntp1351
Rp1352
(dp1353
g8
F48.5609756097561
sg9
F3.7804878048780495
sg10
I2
sg11
F101587.13370307126
sbag2
(g3
g4
Ntp1354
Rp1355
(dp1356
g8
F48.5609756097561
sg9
F4.146341463414634
sg10
I2
sg11
F101589.39613591453
sbag2
(g3
g4
Ntp1357
Rp1358
(dp1359
g8
F48.5609756097561
sg9
F4.512195121951219
sg10
I2
sg11
F101589.55608628153
sbag2
(g3
g4
Ntp1360
Rp1361
(dp1362
g8
F48.5609756097561
sg9
F4.878048780487804
sg10
I2
sg11
F101592.04118411451
sbag2
(g3
g4
Ntp1363
Rp1364
(dp1365
g8
F48.5609756097561
sg9
F5.2439024390243905
sg10
I2
sg11
F101603.40785820459
sbag2
(g3
g4
Ntp1366
Rp1367
(dp1368
g8
F48.5609756097561
sg9
F5.609756097560975
sg10
I2
sg11
F101630.0296559005
sbag2
(g3
g4
Ntp1369
Rp1370
(dp1371
g8
F48.5609756097561
sg9
F5.97560975609756
sg10
I2
sg11
F101649.87153546484
sbag2
(g3
g4
Ntp1372
Rp1373
(dp1374
g8
F48.5609756097561
sg9
F6.341463414634147
sg10
I2
sg11
F101631.57039820871
sbag2
(g3
g4
Ntp1375
Rp1376
(dp1377
g8
F48.5609756097561
sg9
F6.7073170731707314
sg10
I2
sg11
F101619.50237059571
sbag2
(g3
g4
Ntp1378
Rp1379
(dp1380
g8
F48.5609756097561
sg9
F7.073170731707316
sg10
I2
sg11
F101632.62190223557
sbag2
(g3
g4
Ntp1381
Rp1382
(dp1383
g8
F48.5609756097561
sg9
F7.439024390243903
sg10
I2
sg11
F101662.1687828553
sbag2
(g3
g4
Ntp1384
Rp1385
(dp1386
g8
F48.5609756097561
sg9
F7.804878048780488
sg10
I2
sg11
F101664.98327767382
sbag2
(g3
g4
Ntp1387
Rp1388
(dp1389
g8
F48.5609756097561
sg9
F8.170731707317072
sg10
I2
sg11
F101637.43852267455
sbag2
(g3
g4
Ntp1390
Rp1391
(dp1392
g8
F48.5609756097561
sg9
F8.536585365853659
sg10
I2
sg11
F101611.71534254693
sbag2
(g3
g4
Ntp1393
Rp1394
(dp1395
g8
F48.5609756097561
sg9
F8.902439024390244
sg10
I2
sg11
F101591.27142414535
sbag2
(g3
g4
Ntp1396
Rp1397
(dp1398
g8
F48.5609756097561
sg9
F9.268292682926829
sg10
I2
sg11
F101574.7378751854
sbag2
(g3
g4
Ntp1399
Rp1400
(dp1401
g8
F48.5609756097561
sg9
F9.634146341463413
sg10
I2
sg11
F101561.18037177798
sbag2
(g3
g4
Ntp1402
Rp1403
(dp1404
g8
F48.5609756097561
sg9
F10.0
sg10
I2
sg11
F101549.97594791997
sbaa(lp1405
g2
(g3
g4
Ntp1406
Rp1407
(dp1408
g8
F48.31707317073171
sg9
F-5.0
sg10
I2
sg11
F101479.17122193755
sbag2
(g3
g4
Ntp1409
Rp1410
(dp1411
g8
F48.31707317073171
sg9
F-4.634146341463414
sg10
I2
sg11
F101472.1263246779
sbag2
(g3
g4
Ntp1412
Rp1413
(dp1414
g8
F48.31707317073171
sg9
F-4.2682926829268295
sg10
I2
sg11
F101470.84200429214
sbag2
(g3
g4
Ntp1415
Rp1416
(dp1417
g8
F48.31707317073171
sg9
F-3.902439024390244
sg10
I2
sg11
F101468.79889709543
sbag2
(g3
g4
Ntp1418
Rp1419
(dp1420
g8
F48.31707317073171
sg9
F-3.5365853658536586
sg10
I2
sg11
F101462.50835454573
sbag2
(g3
g4
Ntp1421
Rp1422
(dp1423
g8
F48.31707317073171
sg9
F-3.1707317073170733
sg10
I2
sg11
F101470.30853071346
sbag2
(g3
g4
Ntp1424
Rp1425
(dp1426
g8
F48.31707317073171
sg9
F-2.8048780487804876
sg10
I2
sg11
F101486.83840442353
sbag2
(g3
g4
Ntp1427
Rp1428
(dp1429
g8
F48.31707317073171
sg9
F-2.4390243902439024
sg10
I2
sg11
F101498.90485618034
sbag2
(g3
g4
Ntp1430
Rp1431
(dp1432
g8
F48.31707317073171
sg9
F-2.073170731707317
sg10
I2
sg11
F101500.2960852755
sbag2
(g3
g4
Ntp1433
Rp1434
(dp1435
g8
F48.31707317073171
sg9
F-1.707317073170732
sg10
I2
sg11
F101496.71304680868
sbag2
(g3
g4
Ntp1436
Rp1437
(dp1438
g8
F48.31707317073171
sg9
F-1.3414634146341466
sg10
I2
sg11
F101508.45659281245
sbag2
(g3
g4
Ntp1439
Rp1440
(dp1441
g8
F48.31707317073171
sg9
F-0.975609756097561
sg10
I2
sg11
F101520.91578339032
sbag2
(g3
g4
Ntp1442
Rp1443
(dp1444
g8
F48.31707317073171
sg9
F-0.6097560975609753
sg10
I2
sg11
F101525.97992423865
sbag2
(g3
g4
Ntp1445
Rp1446
(dp1447
g8
F48.31707317073171
sg9
F-0.24390243902439046
sg10
I2
sg11
F101521.88493784188
sbag2
(g3
g4
Ntp1448
Rp1449
(dp1450
g8
F48.31707317073171
sg9
F0.12195121951219523
sg10
I2
sg11
F101512.67227921548
sbag2
(g3
g4
Ntp1451
Rp1452
(dp1453
g8
F48.31707317073171
sg9
F0.48780487804878003
sg10
I2
sg11
F101527.91699493959
sbag2
(g3
g4
Ntp1454
Rp1455
(dp1456
g8
F48.31707317073171
sg9
F0.8536585365853657
sg10
I2
sg11
F101542.62371280133
sbag2
(g3
g4
Ntp1457
Rp1458
(dp1459
g8
F48.31707317073171
sg9
F1.2195121951219514
sg10
I2
sg11
F101550.91865421103
sbag2
(g3
g4
Ntp1460
Rp1461
(dp1462
g8
F48.31707317073171
sg9
F1.5853658536585362
sg10
I2
sg11
F101557.10985114815
sbag2
(g3
g4
Ntp1463
Rp1464
(dp1465
g8
F48.31707317073171
sg9
F1.951219512195122
sg10
I2
sg11
F101561.48974212763
sbag2
(g3
g4
Ntp1466
Rp1467
(dp1468
g8
F48.31707317073171
sg9
F2.3170731707317067
sg10
I2
sg11
F101563.1291909597
sbag2
(g3
g4
Ntp1469
Rp1470
(dp1471
g8
F48.31707317073171
sg9
F2.6829268292682924
sg10
I2
sg11
F101565.92853394875
sbag2
(g3
g4
Ntp1472
Rp1473
(dp1474
g8
F48.31707317073171
sg9
F3.048780487804878
sg10
I2
sg11
F101571.39222419019
sbag2
(g3
g4
Ntp1475
Rp1476
(dp1477
g8
F48.31707317073171
sg9
F3.414634146341463
sg10
I2
sg11
F101578.73246675849
sbag2
(g3
g4
Ntp1478
Rp1479
(dp1480
g8
F48.31707317073171
sg9
F3.7804878048780495
sg10
I2
sg11
F101587.39815890823
sbag2
(g3
g4
Ntp1481
Rp1482
(dp1483
g8
F48.31707317073171
sg9
F4.146341463414634
sg10
I2
sg11
F101589.454155184
sbag2
(g3
g4
Ntp1484
Rp1485
(dp1486
g8
F48.31707317073171
sg9
F4.512195121951219
sg10
I2
sg11
F101587.78094364681
sbag2
(g3
g4
Ntp1487
Rp1488
(dp1489
g8
F48.31707317073171
sg9
F4.878048780487804
sg10
I2
sg11
F101591.12875771572
sbag2
(g3
g4
Ntp1490
Rp1491
(dp1492
g8
F48.31707317073171
sg9
F5.2439024390243905
sg10
I2
sg11
F101601.14149150497
sbag2
(g3
g4
Ntp1493
Rp1494
(dp1495
g8
F48.31707317073171
sg9
F5.609756097560975
sg10
I2
sg11
F101621.9650422214
sbag2
(g3
g4
Ntp1496
Rp1497
(dp1498
g8
F48.31707317073171
sg9
F5.97560975609756
sg10
I2
sg11
F101637.72346521461
sbag2
(g3
g4
Ntp1499
Rp1500
(dp1501
g8
F48.31707317073171
sg9
F6.341463414634147
sg10
I2
sg11
F101624.92570555297
sbag2
(g3
g4
Ntp1502
Rp1503
(dp1504
g8
F48.31707317073171
sg9
F6.7073170731707314
sg10
I2
sg11
F101616.89497179656
sbag2
(g3
g4
Ntp1505
Rp1506
(dp1507
g8
F48.31707317073171
sg9
F7.073170731707316
sg10
I2
sg11
F101629.019335017
sbag2
(g3
g4
Ntp1508
Rp1509
(dp1510
g8
F48.31707317073171
sg9
F7.439024390243903
sg10
I2
sg11
F101652.36267055197
sbag2
(g3
g4
Ntp1511
Rp1512
(dp1513
g8
F48.31707317073171
sg9
F7.804878048780488
sg10
I2
sg11
F101655.29146130306
sbag2
(g3
g4
Ntp1514
Rp1515
(dp1516
g8
F48.31707317073171
sg9
F8.170731707317072
sg10
I2
sg11
F101632.59231598888
sbag2
(g3
g4
Ntp1517
Rp1518
(dp1519
g8
F48.31707317073171
sg9
F8.536585365853659
sg10
I2
sg11
F101609.24721710429
sbag2
(g3
g4
Ntp1520
Rp1521
(dp1522
g8
F48.31707317073171
sg9
F8.902439024390244
sg10
I2
sg11
F101589.18935883098
sbag2
(g3
g4
Ntp1523
Rp1524
(dp1525
g8
F48.31707317073171
sg9
F9.268292682926829
sg10
I2
sg11
F101572.43772183798
sbag2
(g3
g4
Ntp1526
Rp1527
(dp1528
g8
F48.31707317073171
sg9
F9.634146341463413
sg10
I2
sg11
F101558.58818379423
sbag2
(g3
g4
Ntp1529
Rp1530
(dp1531
g8
F48.31707317073171
sg9
F10.0
sg10
I2
sg11
F101547.1598165649
sbaa(lp1532
g2
(g3
g4
Ntp1533
Rp1534
(dp1535
g8
F48.073170731707314
sg9
F-5.0
sg10
I2
sg11
F101481.54075408295
sbag2
(g3
g4
Ntp1536
Rp1537
(dp1538
g8
F48.073170731707314
sg9
F-4.634146341463414
sg10
I2
sg11
F101475.62276458264
sbag2
(g3
g4
Ntp1539
Rp1540
(dp1541
g8
F48.073170731707314
sg9
F-4.2682926829268295
sg10
I2
sg11
F101474.08548072244
sbag2
(g3
g4
Ntp1542
Rp1543
(dp1544
g8
F48.073170731707314
sg9
F-3.902439024390244
sg10
I2
sg11
F101474.18128478121
sbag2
(g3
g4
Ntp1545
Rp1546
(dp1547
g8
F48.073170731707314
sg9
F-3.5365853658536586
sg10
I2
sg11
F101473.4718279678
sbag2
(g3
g4
Ntp1548
Rp1549
(dp1550
g8
F48.073170731707314
sg9
F-3.1707317073170733
sg10
I2
sg11
F101478.47680343917
sbag2
(g3
g4
Ntp1551
Rp1552
(dp1553
g8
F48.073170731707314
sg9
F-2.8048780487804876
sg10
I2
sg11
F101489.29695044785
sbag2
(g3
g4
Ntp1554
Rp1555
(dp1556
g8
F48.073170731707314
sg9
F-2.4390243902439024
sg10
I2
sg11
F101499.06908656351
sbag2
(g3
g4
Ntp1557
Rp1558
(dp1559
g8
F48.073170731707314
sg9
F-2.073170731707317
sg10
I2
sg11
F101498.1636266422
sbag2
(g3
g4
Ntp1560
Rp1561
(dp1562
g8
F48.073170731707314
sg9
F-1.707317073170732
sg10
I2
sg11
F101490.10563732524
sbag2
(g3
g4
Ntp1563
Rp1564
(dp1565
g8
F48.073170731707314
sg9
F-1.3414634146341466
sg10
I2
sg11
F101505.67155940912
sbag2
(g3
g4
Ntp1566
Rp1567
(dp1568
g8
F48.073170731707314
sg9
F-0.975609756097561
sg10
I2
sg11
F101520.33509766668
sbag2
(g3
g4
Ntp1569
Rp1570
(dp1571
g8
F48.073170731707314
sg9
F-0.6097560975609753
sg10
I2
sg11
F101526.97472709631
sbag2
(g3
g4
Ntp1572
Rp1573
(dp1574
g8
F48.073170731707314
sg9
F-0.24390243902439046
sg10
I2
sg11
F101526.83985853105
sbag2
(g3
g4
Ntp1575
Rp1576
(dp1577
g8
F48.073170731707314
sg9
F0.12195121951219523
sg10
I2
sg11
F101525.21454259526
sbag2
(g3
g4
Ntp1578
Rp1579
(dp1580
g8
F48.073170731707314
sg9
F0.48780487804878003
sg10
I2
sg11
F101535.39985039817
sbag2
(g3
g4
Ntp1581
Rp1582
(dp1583
g8
F48.073170731707314
sg9
F0.8536585365853657
sg10
I2
sg11
F101545.31376351528
sbag2
(g3
g4
Ntp1584
Rp1585
(dp1586
g8
F48.073170731707314
sg9
F1.2195121951219514
sg10
I2
sg11
F101551.99415233273
sbag2
(g3
g4
Ntp1587
Rp1588
(dp1589
g8
F48.073170731707314
sg9
F1.5853658536585362
sg10
I2
sg11
F101558.40516340567
sbag2
(g3
g4
Ntp1590
Rp1591
(dp1592
g8
F48.073170731707314
sg9
F1.951219512195122
sg10
I2
sg11
F101563.78488761366
sbag2
(g3
g4
Ntp1593
Rp1594
(dp1595
g8
F48.073170731707314
sg9
F2.3170731707317067
sg10
I2
sg11
F101566.93416982435
sbag2
(g3
g4
Ntp1596
Rp1597
(dp1598
g8
F48.073170731707314
sg9
F2.6829268292682924
sg10
I2
sg11
F101569.23880086096
sbag2
(g3
g4
Ntp1599
Rp1600
(dp1601
g8
F48.073170731707314
sg9
F3.048780487804878
sg10
I2
sg11
F101572.27378821155
sbag2
(g3
g4
Ntp1602
Rp1603
(dp1604
g8
F48.073170731707314
sg9
F3.414634146341463
sg10
I2
sg11
F101577.38602281292
sbag2
(g3
g4
Ntp1605
Rp1606
(dp1607
g8
F48.073170731707314
sg9
F3.7804878048780495
sg10
I2
sg11
F101584.64273729481
sbag2
(g3
g4
Ntp1608
Rp1609
(dp1610
g8
F48.073170731707314
sg9
F4.146341463414634
sg10
I2
sg11
F101587.13024617113
sbag2
(g3
g4
Ntp1611
Rp1612
(dp1613
g8
F48.073170731707314
sg9
F4.512195121951219
sg10
I2
sg11
F101586.85413754017
sbag2
(g3
g4
Ntp1614
Rp1615
(dp1616
g8
F48.073170731707314
sg9
F4.878048780487804
sg10
I2
sg11
F101591.64145755718
sbag2
(g3
g4
Ntp1617
Rp1618
(dp1619
g8
F48.073170731707314
sg9
F5.2439024390243905
sg10
I2
sg11
F101598.68711856654
sbag2
(g3
g4
Ntp1620
Rp1621
(dp1622
g8
F48.073170731707314
sg9
F5.609756097560975
sg10
I2
sg11
F101609.20686159893
sbag2
(g3
g4
Ntp1623
Rp1624
(dp1625
g8
F48.073170731707314
sg9
F5.97560975609756
sg10
I2
sg11
F101617.63842774565
sbag2
(g3
g4
Ntp1626
Rp1627
(dp1628
g8
F48.073170731707314
sg9
F6.341463414634147
sg10
I2
sg11
F101613.18040068886
sbag2
(g3
g4
Ntp1629
Rp1630
(dp1631
g8
F48.073170731707314
sg9
F6.7073170731707314
sg10
I2
sg11
F101612.02706104756
sbag2
(g3
g4
Ntp1632
Rp1633
(dp1634
g8
F48.073170731707314
sg9
F7.073170731707316
sg10
I2
sg11
F101623.53723955127
sbag2
(g3
g4
Ntp1635
Rp1636
(dp1637
g8
F48.073170731707314
sg9
F7.439024390243903
sg10
I2
sg11
F101636.0212691425
sbag2
(g3
g4
Ntp1638
Rp1639
(dp1640
g8
F48.073170731707314
sg9
F7.804878048780488
sg10
I2
sg11
F101637.00834876853
sbag2
(g3
g4
Ntp1641
Rp1642
(dp1643
g8
F48.073170731707314
sg9
F8.170731707317072
sg10
I2
sg11
F101623.4656268759
sbag2
(g3
g4
Ntp1644
Rp1645
(dp1646
g8
F48.073170731707314
sg9
F8.536585365853659
sg10
I2
sg11
F101604.09122437578
sbag2
(g3
g4
Ntp1647
Rp1648
(dp1649
g8
F48.073170731707314
sg9
F8.902439024390244
sg10
I2
sg11
F101585.15706050395
sbag2
(g3
g4
Ntp1650
Rp1651
(dp1652
g8
F48.073170731707314
sg9
F9.268292682926829
sg10
I2
sg11
F101568.6612624414
sbag2
(g3
g4
Ntp1653
Rp1654
(dp1655
g8
F48.073170731707314
sg9
F9.634146341463413
sg10
I2
sg11
F101554.84994583421
sbag2
(g3
g4
Ntp1656
Rp1657
(dp1658
g8
F48.073170731707314
sg9
F10.0
sg10
I2
sg11
F101543.43402349747
sbaa(lp1659
g2
(g3
g4
Ntp1660
Rp1661
(dp1662
g8
F47.829268292682926
sg9
F-5.0
sg10
I2
sg11
F101485.10281036417
sbag2
(g3
g4
Ntp1663
Rp1664
(dp1665
g8
F47.829268292682926
sg9
F-4.634146341463414
sg10
I2
sg11
F101480.61424608149
sbag2
(g3
g4
Ntp1666
Rp1667
(dp1668
g8
F47.829268292682926
sg9
F-4.2682926829268295
sg10
I2
sg11
F101478.87477814537
sbag2
(g3
g4
Ntp1669
Rp1670
(dp1671
g8
F47.829268292682926
sg9
F-3.902439024390244
sg10
I2
sg11
F101478.17957091116
sbag2
(g3
g4
Ntp1672
Rp1673
(dp1674
g8
F47.829268292682926
sg9
F-3.5365853658536586
sg10
I2
sg11
F101476.52358465089
sbag2
(g3
g4
Ntp1675
Rp1676
(dp1677
g8
F47.829268292682926
sg9
F-3.1707317073170733
sg10
I2
sg11
F101478.12637158757
sbag2
(g3
g4
Ntp1678
Rp1679
(dp1680
g8
F47.829268292682926
sg9
F-2.8048780487804876
sg10
I2
sg11
F101488.35653945098
sbag2
(g3
g4
Ntp1681
Rp1682
(dp1683
g8
F47.829268292682926
sg9
F-2.4390243902439024
sg10
I2
sg11
F101499.73130206825
sbag2
(g3
g4
Ntp1684
Rp1685
(dp1686
g8
F47.829268292682926
sg9
F-2.073170731707317
sg10
I2
sg11
F101501.56314299197
sbag2
(g3
g4
Ntp1687
Rp1688
(dp1689
g8
F47.829268292682926
sg9
F-1.707317073170732
sg10
I2
sg11
F101497.737811243
sbag2
(g3
g4
Ntp1690
Rp1691
(dp1692
g8
F47.829268292682926
sg9
F-1.3414634146341466
sg10
I2
sg11
F101509.71544373818
sbag2
(g3
g4
Ntp1693
Rp1694
(dp1695
g8
F47.829268292682926
sg9
F-0.975609756097561
sg10
I2
sg11
F101521.7190553542
sbag2
(g3
g4
Ntp1696
Rp1697
(dp1698
g8
F47.829268292682926
sg9
F-0.6097560975609753
sg10
I2
sg11
F101529.04452915446
sbag2
(g3
g4
Ntp1699
Rp1700
(dp1701
g8
F47.829268292682926
sg9
F-0.24390243902439046
sg10
I2
sg11
F101532.50923036678
sbag2
(g3
g4
Ntp1702
Rp1703
(dp1704
g8
F47.829268292682926
sg9
F0.12195121951219523
sg10
I2
sg11
F101535.90854541898
sbag2
(g3
g4
Ntp1705
Rp1706
(dp1707
g8
F47.829268292682926
sg9
F0.48780487804878003
sg10
I2
sg11
F101543.47864870155
sbag2
(g3
g4
Ntp1708
Rp1709
(dp1710
g8
F47.829268292682926
sg9
F0.8536585365853657
sg10
I2
sg11
F101548.5791226164
sbag2
(g3
g4
Ntp1711
Rp1712
(dp1713
g8
F47.829268292682926
sg9
F1.2195121951219514
sg10
I2
sg11
F101553.42103561657
sbag2
(g3
g4
Ntp1714
Rp1715
(dp1716
g8
F47.829268292682926
sg9
F1.5853658536585362
sg10
I2
sg11
F101560.66792072197
sbag2
(g3
g4
Ntp1717
Rp1718
(dp1719
g8
F47.829268292682926
sg9
F1.951219512195122
sg10
I2
sg11
F101568.28915145455
sbag2
(g3
g4
Ntp1720
Rp1721
(dp1722
g8
F47.829268292682926
sg9
F2.3170731707317067
sg10
I2
sg11
F101573.40800290447
sbag2
(g3
g4
Ntp1723
Rp1724
(dp1725
g8
F47.829268292682926
sg9
F2.6829268292682924
sg10
I2
sg11
F101574.18093962195
sbag2
(g3
g4
Ntp1726
Rp1727
(dp1728
g8
F47.829268292682926
sg9
F3.048780487804878
sg10
I2
sg11
F101573.72693151433
sbag2
(g3
g4
Ntp1729
Rp1730
(dp1731
g8
F47.829268292682926
sg9
F3.414634146341463
sg10
I2
sg11
F101575.63758673386
sbag2
(g3
g4
Ntp1732
Rp1733
(dp1734
g8
F47.829268292682926
sg9
F3.7804878048780495
sg10
I2
sg11
F101580.0030884624
sbag2
(g3
g4
Ntp1735
Rp1736
(dp1737
g8
F47.829268292682926
sg9
F4.146341463414634
sg10
I2
sg11
F101583.08693251995
sbag2
(g3
g4
Ntp1738
Rp1739
(dp1740
g8
F47.829268292682926
sg9
F4.512195121951219
sg10
I2
sg11
F101587.09477847467
sbag2
(g3
g4
Ntp1741
Rp1742
(dp1743
g8
F47.829268292682926
sg9
F4.878048780487804
sg10
I2
sg11
F101596.1672698718
sbag2
(g3
g4
Ntp1744
Rp1745
(dp1746
g8
F47.829268292682926
sg9
F5.2439024390243905
sg10
I2
sg11
F101600.80228325193
sbag2
(g3
g4
Ntp1747
Rp1748
(dp1749
g8
F47.829268292682926
sg9
F5.609756097560975
sg10
I2
sg11
F101600.88462078529
sbag2
(g3
g4
Ntp1750
Rp1751
(dp1752
g8
F47.829268292682926
sg9
F5.97560975609756
sg10
I2
sg11
F101602.40835461635
sbag2
(g3
g4
Ntp1753
Rp1754
(dp1755
g8
F47.829268292682926
sg9
F6.341463414634147
sg10
I2
sg11
F101602.00807834766
sbag2
(g3
g4
Ntp1756
Rp1757
(dp1758
g8
F47.829268292682926
sg9
F6.7073170731707314
sg10
I2
sg11
F101606.4394618643
sbag2
(g3
g4
Ntp1759
Rp1760
(dp1761
g8
F47.829268292682926
sg9
F7.073170731707316
sg10
I2
sg11
F101621.54199344592
sbag2
(g3
g4
Ntp1762
Rp1763
(dp1764
g8
F47.829268292682926
sg9
F7.439024390243903
sg10
I2
sg11
F101635.22136697243
sbag2
(g3
g4
Ntp1765
Rp1766
(dp1767
g8
F47.829268292682926
sg9
F7.804878048780488
sg10
I2
sg11
F101630.73438773985
sbag2
(g3
g4
Ntp1768
Rp1769
(dp1770
g8
F47.829268292682926
sg9
F8.170731707317072
sg10
I2
sg11
F101615.99370817018
sbag2
(g3
g4
Ntp1771
Rp1772
(dp1773
g8
F47.829268292682926
sg9
F8.536585365853659
sg10
I2
sg11
F101597.60469406183
sbag2
(g3
g4
Ntp1774
Rp1775
(dp1776
g8
F47.829268292682926
sg9
F8.902439024390244
sg10
I2
sg11
F101579.45662004585
sbag2
(g3
g4
Ntp1777
Rp1778
(dp1779
g8
F47.829268292682926
sg9
F9.268292682926829
sg10
I2
sg11
F101563.4364059853
sbag2
(g3
g4
Ntp1780
Rp1781
(dp1782
g8
F47.829268292682926
sg9
F9.634146341463413
sg10
I2
sg11
F101549.93645042679
sbag2
(g3
g4
Ntp1783
Rp1784
(dp1785
g8
F47.829268292682926
sg9
F10.0
sg10
I2
sg11
F101538.76156075927
sbaa(lp1786
g2
(g3
g4
Ntp1787
Rp1788
(dp1789
g8
F47.58536585365854
sg9
F-5.0
sg10
I2
sg11
F101488.97548265477
sbag2
(g3
g4
Ntp1790
Rp1791
(dp1792
g8
F47.58536585365854
sg9
F-4.634146341463414
sg10
I2
sg11
F101485.44966578502
sbag2
(g3
g4
Ntp1793
Rp1794
(dp1795
g8
F47.58536585365854
sg9
F-4.2682926829268295
sg10
I2
sg11
F101483.18413290886
sbag2
(g3
g4
Ntp1796
Rp1797
(dp1798
g8
F47.58536585365854
sg9
F-3.902439024390244
sg10
I2
sg11
F101480.17055479751
sbag2
(g3
g4
Ntp1799
Rp1800
(dp1801
g8
F47.58536585365854
sg9
F-3.5365853658536586
sg10
I2
sg11
F101473.27887328708
sbag2
(g3
g4
Ntp1802
Rp1803
(dp1804
g8
F47.58536585365854
sg9
F-3.1707317073170733
sg10
I2
sg11
F101469.41075431516
sbag2
(g3
g4
Ntp1805
Rp1806
(dp1807
g8
F47.58536585365854
sg9
F-2.8048780487804876
sg10
I2
sg11
F101483.98484160056
sbag2
(g3
g4
Ntp1808
Rp1809
(dp1810
g8
F47.58536585365854
sg9
F-2.4390243902439024
sg10
I2
sg11
F101500.67580465483
sbag2
(g3
g4
Ntp1811
Rp1812
(dp1813
g8
F47.58536585365854
sg9
F-2.073170731707317
sg10
I2
sg11
F101507.94114987103
sbag2
(g3
g4
Ntp1814
Rp1815
(dp1816
g8
F47.58536585365854
sg9
F-1.707317073170732
sg10
I2
sg11
F101511.21755962215
sbag2
(g3
g4
Ntp1817
Rp1818
(dp1819
g8
F47.58536585365854
sg9
F-1.3414634146341466
sg10
I2
sg11
F101516.5713016648
sbag2
(g3
g4
Ntp1820
Rp1821
(dp1822
g8
F47.58536585365854
sg9
F-0.975609756097561
sg10
I2
sg11
F101524.24407544374
sbag2
(g3
g4
Ntp1823
Rp1824
(dp1825
g8
F47.58536585365854
sg9
F-0.6097560975609753
sg10
I2
sg11
F101531.62981806407
sbag2
(g3
g4
Ntp1826
Rp1827
(dp1828
g8
F47.58536585365854
sg9
F-0.24390243902439046
sg10
I2
sg11
F101537.1960584266
sbag2
(g3
g4
Ntp1829
Rp1830
(dp1831
g8
F47.58536585365854
sg9
F0.12195121951219523
sg10
I2
sg11
F101542.47040404369
sbag2
(g3
g4
Ntp1832
Rp1833
(dp1834
g8
F47.58536585365854
sg9
F0.48780487804878003
sg10
I2
sg11
F101548.34155938907
sbag2
(g3
g4
Ntp1835
Rp1836
(dp1837
g8
F47.58536585365854
sg9
F0.8536585365853657
sg10
I2
sg11
F101550.15589836029
sbag2
(g3
g4
Ntp1838
Rp1839
(dp1840
g8
F47.58536585365854
sg9
F1.2195121951219514
sg10
I2
sg11
F101554.76002873394
sbag2
(g3
g4
Ntp1841
Rp1842
(dp1843
g8
F47.58536585365854
sg9
F1.5853658536585362
sg10
I2
sg11
F101563.8518466508
sbag2
(g3
g4
Ntp1844
Rp1845
(dp1846
g8
F47.58536585365854
sg9
F1.951219512195122
sg10
I2
sg11
F101575.75500308182
sbag2
(g3
g4
Ntp1847
Rp1848
(dp1849
g8
F47.58536585365854
sg9
F2.3170731707317067
sg10
I2
sg11
F101585.05755400633
sbag2
(g3
g4
Ntp1850
Rp1851
(dp1852
g8
F47.58536585365854
sg9
F2.6829268292682924
sg10
I2
sg11
F101582.27015366998
sbag2
(g3
g4
Ntp1853
Rp1854
(dp1855
g8
F47.58536585365854
sg9
F3.048780487804878
sg10
I2
sg11
F101576.12372357973
sbag2
(g3
g4
Ntp1856
Rp1857
(dp1858
g8
F47.58536585365854
sg9
F3.414634146341463
sg10
I2
sg11
F101574.22179146104
sbag2
(g3
g4
Ntp1859
Rp1860
(dp1861
g8
F47.58536585365854
sg9
F3.7804878048780495
sg10
I2
sg11
F101576.02067241221
sbag2
(g3
g4
Ntp1862
Rp1863
(dp1864
g8
F47.58536585365854
sg9
F4.146341463414634
sg10
I2
sg11
F101579.8413267403
sbag2
(g3
g4
Ntp1865
Rp1866
(dp1867
g8
F47.58536585365854
sg9
F4.512195121951219
sg10
I2
sg11
F101589.12067356985
sbag2
(g3
g4
Ntp1868
Rp1869
(dp1870
g8
F47.58536585365854
sg9
F4.878048780487804
sg10
I2
sg11
F101607.38604349323
sbag2
(g3
g4
Ntp1871
Rp1872
(dp1873
g8
F47.58536585365854
sg9
F5.2439024390243905
sg10
I2
sg11
F101611.21598838198
sbag2
(g3
g4
Ntp1874
Rp1875
(dp1876
g8
F47.58536585365854
sg9
F5.609756097560975
sg10
I2
sg11
F101598.61931899919
sbag2
(g3
g4
Ntp1877
Rp1878
(dp1879
g8
F47.58536585365854
sg9
F5.97560975609756
sg10
I2
sg11
F101592.55938249278
sbag2
(g3
g4
Ntp1880
Rp1881
(dp1882
g8
F47.58536585365854
sg9
F6.341463414634147
sg10
I2
sg11
F101592.34082965965
sbag2
(g3
g4
Ntp1883
Rp1884
(dp1885
g8
F47.58536585365854
sg9
F6.7073170731707314
sg10
I2
sg11
F101599.89117138291
sbag2
(g3
g4
Ntp1886
Rp1887
(dp1888
g8
F47.58536585365854
sg9
F7.073170731707316
sg10
I2
sg11
F101619.5659659924
sbag2
(g3
g4
Ntp1889
Rp1890
(dp1891
g8
F47.58536585365854
sg9
F7.439024390243903
sg10
I2
sg11
F101639.16202420932
sbag2
(g3
g4
Ntp1892
Rp1893
(dp1894
g8
F47.58536585365854
sg9
F7.804878048780488
sg10
I2
sg11
F101630.29083659363
sbag2
(g3
g4
Ntp1895
Rp1896
(dp1897
g8
F47.58536585365854
sg9
F8.170731707317072
sg10
I2
sg11
F101609.58783826546
sbag2
(g3
g4
Ntp1898
Rp1899
(dp1900
g8
F47.58536585365854
sg9
F8.536585365853659
sg10
I2
sg11
F101589.92953819524
sbag2
(g3
g4
Ntp1901
Rp1902
(dp1903
g8
F47.58536585365854
sg9
F8.902439024390244
sg10
I2
sg11
F101572.17849178692
sbag2
(g3
g4
Ntp1904
Rp1905
(dp1906
g8
F47.58536585365854
sg9
F9.268292682926829
sg10
I2
sg11
F101556.78873938692
sbag2
(g3
g4
Ntp1907
Rp1908
(dp1909
g8
F47.58536585365854
sg9
F9.634146341463413
sg10
I2
sg11
F101543.8439012808
sbag2
(g3
g4
Ntp1910
Rp1911
(dp1912
g8
F47.58536585365854
sg9
F10.0
sg10
I2
sg11
F101533.1284456601
sbaa(lp1913
g2
(g3
g4
Ntp1914
Rp1915
(dp1916
g8
F47.34146341463415
sg9
F-5.0
sg10
I2
sg11
F101492.69097102452
sbag2
(g3
g4
Ntp1917
Rp1918
(dp1919
g8
F47.34146341463415
sg9
F-4.634146341463414
sg10
I2
sg11
F101489.65942051563
sbag2
(g3
g4
Ntp1920
Rp1921
(dp1922
g8
F47.34146341463415
sg9
F-4.2682926829268295
sg10
I2
sg11
F101486.71835487954
sbag2
(g3
g4
Ntp1923
Rp1924
(dp1925
g8
F47.34146341463415
sg9
F-3.902439024390244
sg10
I2
sg11
F101481.39163634542
sbag2
(g3
g4
Ntp1926
Rp1927
(dp1928
g8
F47.34146341463415
sg9
F-3.5365853658536586
sg10
I2
sg11
F101469.46634806352
sbag2
(g3
g4
Ntp1929
Rp1930
(dp1931
g8
F47.34146341463415
sg9
F-3.1707317073170733
sg10
I2
sg11
F101460.63991490078
sbag2
(g3
g4
Ntp1932
Rp1933
(dp1934
g8
F47.34146341463415
sg9
F-2.8048780487804876
sg10
I2
sg11
F101480.36455917363
sbag2
(g3
g4
Ntp1935
Rp1936
(dp1937
g8
F47.34146341463415
sg9
F-2.4390243902439024
sg10
I2
sg11
F101502.26370569263
sbag2
(g3
g4
Ntp1938
Rp1939
(dp1940
g8
F47.34146341463415
sg9
F-2.073170731707317
sg10
I2
sg11
F101513.347616563
sbag2
(g3
g4
Ntp1941
Rp1942
(dp1943
g8
F47.34146341463415
sg9
F-1.707317073170732
sg10
I2
sg11
F101518.81868430262
sbag2
(g3
g4
Ntp1944
Rp1945
(dp1946
g8
F47.34146341463415
sg9
F-1.3414634146341466
sg10
I2
sg11
F101520.54860296697
sbag2
(g3
g4
Ntp1947
Rp1948
(dp1949
g8
F47.34146341463415
sg9
F-0.975609756097561
sg10
I2
sg11
F101526.78619266265
sbag2
(g3
g4
Ntp1950
Rp1951
(dp1952
g8
F47.34146341463415
sg9
F-0.6097560975609753
sg10
I2
sg11
F101534.39027714122
sbag2
(g3
g4
Ntp1953
Rp1954
(dp1955
g8
F47.34146341463415
sg9
F-0.24390243902439046
sg10
I2
sg11
F101541.09741068096
sbag2
(g3
g4
Ntp1956
Rp1957
(dp1958
g8
F47.34146341463415
sg9
F0.12195121951219523
sg10
I2
sg11
F101546.66933243112
sbag2
(g3
g4
Ntp1959
Rp1960
(dp1961
g8
F47.34146341463415
sg9
F0.48780487804878003
sg10
I2
sg11
F101549.98796065719
sbag2
(g3
g4
Ntp1962
Rp1963
(dp1964
g8
F47.34146341463415
sg9
F0.8536585365853657
sg10
I2
sg11
F101550.62373655695
sbag2
(g3
g4
Ntp1965
Rp1966
(dp1967
g8
F47.34146341463415
sg9
F1.2195121951219514
sg10
I2
sg11
F101556.65185896051
sbag2
(g3
g4
Ntp1968
Rp1969
(dp1970
g8
F47.34146341463415
sg9
F1.5853658536585362
sg10
I2
sg11
F101567.59608916474
sbag2
(g3
g4
Ntp1971
Rp1972
(dp1973
g8
F47.34146341463415
sg9
F1.951219512195122
sg10
I2
sg11
F101585.61549820373
sbag2
(g3
g4
Ntp1974
Rp1975
(dp1976
g8
F47.34146341463415
sg9
F2.3170731707317067
sg10
I2
sg11
F101603.71589072142
sbag2
(g3
g4
Ntp1977
Rp1978
(dp1979
g8
F47.34146341463415
sg9
F2.6829268292682924
sg10
I2
sg11
F101593.56216792029
sbag2
(g3
g4
Ntp1980
Rp1981
(dp1982
g8
F47.34146341463415
sg9
F3.048780487804878
sg10
I2
sg11
F101579.06298904601
sbag2
(g3
g4
Ntp1983
Rp1984
(dp1985
g8
F47.34146341463415
sg9
F3.414634146341463
sg10
I2
sg11
F101573.24153050395
sbag2
(g3
g4
Ntp1986
Rp1987
(dp1988
g8
F47.34146341463415
sg9
F3.7804878048780495
sg10
I2
sg11
F101572.81317906898
sbag2
(g3
g4
Ntp1989
Rp1990
(dp1991
g8
F47.34146341463415
sg9
F4.146341463414634
sg10
I2
sg11
F101576.8387502107
sbag2
(g3
g4
Ntp1992
Rp1993
(dp1994
g8
F47.34146341463415
sg9
F4.512195121951219
sg10
I2
sg11
F101590.30627601602
sbag2
(g3
g4
Ntp1995
Rp1996
(dp1997
g8
F47.34146341463415
sg9
F4.878048780487804
sg10
I2
sg11
F101619.2157680964
sbag2
(g3
g4
Ntp1998
Rp1999
(dp2000
g8
F47.34146341463415
sg9
F5.2439024390243905
sg10
I2
sg11
F101623.58426724531
sbag2
(g3
g4
Ntp2001
Rp2002
(dp2003
g8
F47.34146341463415
sg9
F5.609756097560975
sg10
I2
sg11
F101597.96167697902
sbag2
(g3
g4
Ntp2004
Rp2005
(dp2006
g8
F47.34146341463415
sg9
F5.97560975609756
sg10
I2
sg11
F101584.86921778347
sbag2
(g3
g4
Ntp2007
Rp2008
(dp2009
g8
F47.34146341463415
sg9
F6.341463414634147
sg10
I2
sg11
F101582.96423682991
sbag2
(g3
g4
Ntp2010
Rp2011
(dp2012
g8
F47.34146341463415
sg9
F6.7073170731707314
sg10
I2
sg11
F101590.84705979207
sbag2
(g3
g4
Ntp2013
Rp2014
(dp2015
g8
F47.34146341463415
sg9
F7.073170731707316
sg10
I2
sg11
F101610.22826001165
sbag2
(g3
g4
Ntp2016
Rp2017
(dp2018
g8
F47.34146341463415
sg9
F7.439024390243903
sg10
I2
sg11
F101628.5575494427
sbag2
(g3
g4
Ntp2019
Rp2020
(dp2021
g8
F47.34146341463415
sg9
F7.804878048780488
sg10
I2
sg11
F101620.84848361353
sbag2
(g3
g4
Ntp2022
Rp2023
(dp2024
g8
F47.34146341463415
sg9
F8.170731707317072
sg10
I2
sg11
F101599.91404502917
sbag2
(g3
g4
Ntp2025
Rp2026
(dp2027
g8
F47.34146341463415
sg9
F8.536585365853659
sg10
I2
sg11
F101580.21484565959
sbag2
(g3
g4
Ntp2028
Rp2029
(dp2030
g8
F47.34146341463415
sg9
F8.902439024390244
sg10
I2
sg11
F101563.20874285857
sbag2
(g3
g4
Ntp2031
Rp2032
(dp2033
g8
F47.34146341463415
sg9
F9.268292682926829
sg10
I2
sg11
F101548.72618242384
sbag2
(g3
g4
Ntp2034
Rp2035
(dp2036
g8
F47.34146341463415
sg9
F9.634146341463413
sg10
I2
sg11
F101536.58708599667
sbag2
(g3
g4
Ntp2037
Rp2038
(dp2039
g8
F47.34146341463415
sg9
F10.0
sg10
I2
sg11
F101526.54111950604
sbaa(lp2040
g2
(g3
g4
Ntp2041
Rp2042
(dp2043
g8
F47.09756097560975
sg9
F-5.0
sg10
I2
sg11
F101496.150171232
sbag2
(g3
g4
Ntp2044
Rp2045
(dp2046
g8
F47.09756097560975
sg9
F-4.634146341463414
sg10
I2
sg11
F101493.42977862201
sbag2
(g3
g4
Ntp2047
Rp2048
(dp2049
g8
F47.09756097560975
sg9
F-4.2682926829268295
sg10
I2
sg11
F101490.15140145803
sbag2
(g3
g4
Ntp2050
Rp2051
(dp2052
g8
F47.09756097560975
sg9
F-3.902439024390244
sg10
I2
sg11
F101484.10805818505
sbag2
(g3
g4
Ntp2053
Rp2054
(dp2055
g8
F47.09756097560975
sg9
F-3.5365853658536586
sg10
I2
sg11
F101472.5106698289
sbag2
(g3
g4
Ntp2056
Rp2057
(dp2058
g8
F47.09756097560975
sg9
F-3.1707317073170733
sg10
I2
sg11
F101465.45107486325
sbag2
(g3
g4
Ntp2059
Rp2060
(dp2061
g8
F47.09756097560975
sg9
F-2.8048780487804876
sg10
I2
sg11
F101483.8042317268
sbag2
(g3
g4
Ntp2062
Rp2063
(dp2064
g8
F47.09756097560975
sg9
F-2.4390243902439024
sg10
I2
sg11
F101505.2242551907
sbag2
(g3
g4
Ntp2065
Rp2066
(dp2067
g8
F47.09756097560975
sg9
F-2.073170731707317
sg10
I2
sg11
F101516.65765467232
sbag2
(g3
g4
Ntp2068
Rp2069
(dp2070
g8
F47.09756097560975
sg9
F-1.707317073170732
sg10
I2
sg11
F101520.0609533359
sbag2
(g3
g4
Ntp2071
Rp2072
(dp2073
g8
F47.09756097560975
sg9
F-1.3414634146341466
sg10
I2
sg11
F101522.05148202716
sbag2
(g3
g4
Ntp2074
Rp2075
(dp2076
g8
F47.09756097560975
sg9
F-0.975609756097561
sg10
I2
sg11
F101529.40774766242
sbag2
(g3
g4
Ntp2077
Rp2078
(dp2079
g8
F47.09756097560975
sg9
F-0.6097560975609753
sg10
I2
sg11
F101537.21742587628
sbag2
(g3
g4
Ntp2080
Rp2081
(dp2082
g8
F47.09756097560975
sg9
F-0.24390243902439046
sg10
I2
sg11
F101544.71147040637
sbag2
(g3
g4
Ntp2083
Rp2084
(dp2085
g8
F47.09756097560975
sg9
F0.12195121951219523
sg10
I2
sg11
F101550.75322122057
sbag2
(g3
g4
Ntp2086
Rp2087
(dp2088
g8
F47.09756097560975
sg9
F0.48780487804878003
sg10
I2
sg11
F101552.78975951143
sbag2
(g3
g4
Ntp2089
Rp2090
(dp2091
g8
F47.09756097560975
sg9
F0.8536585365853657
sg10
I2
sg11
F101553.90755743893
sbag2
(g3
g4
Ntp2092
Rp2093
(dp2094
g8
F47.09756097560975
sg9
F1.2195121951219514
sg10
I2
sg11
F101559.9333601595
sbag2
(g3
g4
Ntp2095
Rp2096
(dp2097
g8
F47.09756097560975
sg9
F1.5853658536585362
sg10
I2
sg11
F101570.90433298628
sbag2
(g3
g4
Ntp2098
Rp2099
(dp2100
g8
F47.09756097560975
sg9
F1.951219512195122
sg10
I2
sg11
F101592.48634832195
sbag2
(g3
g4
Ntp2101
Rp2102
(dp2103
g8
F47.09756097560975
sg9
F2.3170731707317067
sg10
I2
sg11
F101619.1402603558
sbag2
(g3
g4
Ntp2104
Rp2105
(dp2106
g8
F47.09756097560975
sg9
F2.6829268292682924
sg10
I2
sg11
F101601.55961049505
sbag2
(g3
g4
Ntp2107
Rp2108
(dp2109
g8
F47.09756097560975
sg9
F3.048780487804878
sg10
I2
sg11
F101580.86402347389
sbag2
(g3
g4
Ntp2110
Rp2111
(dp2112
g8
F47.09756097560975
sg9
F3.414634146341463
sg10
I2
sg11
F101572.38820122414
sbag2
(g3
g4
Ntp2113
Rp2114
(dp2115
g8
F47.09756097560975
sg9
F3.7804878048780495
sg10
I2
sg11
F101569.86160325534
sbag2
(g3
g4
Ntp2116
Rp2117
(dp2118
g8
F47.09756097560975
sg9
F4.146341463414634
sg10
I2
sg11
F101572.76356086848
sbag2
(g3
g4
Ntp2119
Rp2120
(dp2121
g8
F47.09756097560975
sg9
F4.512195121951219
sg10
I2
sg11
F101585.99425756707
sbag2
(g3
g4
Ntp2122
Rp2123
(dp2124
g8
F47.09756097560975
sg9
F4.878048780487804
sg10
I2
sg11
F101613.7981377834
sbag2
(g3
g4
Ntp2125
Rp2126
(dp2127
g8
F47.09756097560975
sg9
F5.2439024390243905
sg10
I2
sg11
F101618.01107773713
sbag2
(g3
g4
Ntp2128
Rp2129
(dp2130
g8
F47.09756097560975
sg9
F5.609756097560975
sg10
I2
sg11
F101591.76398004654
sbag2
(g3
g4
Ntp2131
Rp2132
(dp2133
g8
F47.09756097560975
sg9
F5.97560975609756
sg10
I2
sg11
F101576.30897297745
sbag2
(g3
g4
Ntp2134
Rp2135
(dp2136
g8
F47.09756097560975
sg9
F6.341463414634147
sg10
I2
sg11
F101572.69015453933
sbag2
(g3
g4
Ntp2137
Rp2138
(dp2139
g8
F47.09756097560975
sg9
F6.7073170731707314
sg10
I2
sg11
F101578.74014658155
sbag2
(g3
g4
Ntp2140
Rp2141
(dp2142
g8
F47.09756097560975
sg9
F7.073170731707316
sg10
I2
sg11
F101593.5628851342
sbag2
(g3
g4
Ntp2143
Rp2144
(dp2145
g8
F47.09756097560975
sg9
F7.439024390243903
sg10
I2
sg11
F101606.58263805277
sbag2
(g3
g4
Ntp2146
Rp2147
(dp2148
g8
F47.09756097560975
sg9
F7.804878048780488
sg10
I2
sg11
F101601.89731522773
sbag2
(g3
g4
Ntp2149
Rp2150
(dp2151
g8
F47.09756097560975
sg9
F8.170731707317072
sg10
I2
sg11
F101585.35026775608
sbag2
(g3
g4
Ntp2152
Rp2153
(dp2154
g8
F47.09756097560975
sg9
F8.536585365853659
sg10
I2
sg11
F101567.89976160973
sbag2
(g3
g4
Ntp2155
Rp2156
(dp2157
g8
F47.09756097560975
sg9
F8.902439024390244
sg10
I2
sg11
F101552.46423029545
sbag2
(g3
g4
Ntp2158
Rp2159
(dp2160
g8
F47.09756097560975
sg9
F9.268292682926829
sg10
I2
sg11
F101539.27904400049
sbag2
(g3
g4
Ntp2161
Rp2162
(dp2163
g8
F47.09756097560975
sg9
F9.634146341463413
sg10
I2
sg11
F101528.20413759307
sbag2
(g3
g4
Ntp2164
Rp2165
(dp2166
g8
F47.09756097560975
sg9
F10.0
sg10
I2
sg11
F101519.02556550142
sbaa(lp2167
g2
(g3
g4
Ntp2168
Rp2169
(dp2170
g8
F46.853658536585364
sg9
F-5.0
sg10
I2
sg11
F101499.40668772298
sbag2
(g3
g4
Ntp2171
Rp2172
(dp2173
g8
F46.853658536585364
sg9
F-4.634146341463414
sg10
I2
sg11
F101497.03986930248
sbag2
(g3
g4
Ntp2174
Rp2175
(dp2176
g8
F46.853658536585364
sg9
F-4.2682926829268295
sg10
I2
sg11
F101494.00283886012
sbag2
(g3
g4
Ntp2177
Rp2178
(dp2179
g8
F46.853658536585364
sg9
F-3.902439024390244
sg10
I2
sg11
F101488.98283975931
sbag2
(g3
g4
Ntp2180
Rp2181
(dp2182
g8
F46.853658536585364
sg9
F-3.5365853658536586
sg10
I2
sg11
F101481.56792648032
sbag2
(g3
g4
Ntp2183
Rp2184
(dp2185
g8
F46.853658536585364
sg9
F-3.1707317073170733
sg10
I2
sg11
F101479.51566373909
sbag2
(g3
g4
Ntp2186
Rp2187
(dp2188
g8
F46.853658536585364
sg9
F-2.8048780487804876
sg10
I2
sg11
F101492.92424056052
sbag2
(g3
g4
Ntp2189
Rp2190
(dp2191
g8
F46.853658536585364
sg9
F-2.4390243902439024
sg10
I2
sg11
F101509.56725584544
sbag2
(g3
g4
Ntp2192
Rp2193
(dp2194
g8
F46.853658536585364
sg9
F-2.073170731707317
sg10
I2
sg11
F101519.46618168999
sbag2
(g3
g4
Ntp2195
Rp2196
(dp2197
g8
F46.853658536585364
sg9
F-1.707317073170732
sg10
I2
sg11
F101522.46044908195
sbag2
(g3
g4
Ntp2198
Rp2199
(dp2200
g8
F46.853658536585364
sg9
F-1.3414634146341466
sg10
I2
sg11
F101526.08495542925
sbag2
(g3
g4
Ntp2201
Rp2202
(dp2203
g8
F46.853658536585364
sg9
F-0.975609756097561
sg10
I2
sg11
F101532.87140175296
sbag2
(g3
g4
Ntp2204
Rp2205
(dp2206
g8
F46.853658536585364
sg9
F-0.6097560975609753
sg10
I2
sg11
F101539.98239591469
sbag2
(g3
g4
Ntp2207
Rp2208
(dp2209
g8
F46.853658536585364
sg9
F-0.24390243902439046
sg10
I2
sg11
F101548.04025612536
sbag2
(g3
g4
Ntp2210
Rp2211
(dp2212
g8
F46.853658536585364
sg9
F0.12195121951219523
sg10
I2
sg11
F101555.58673172357
sbag2
(g3
g4
Ntp2213
Rp2214
(dp2215
g8
F46.853658536585364
sg9
F0.48780487804878003
sg10
I2
sg11
F101557.33470551023
sbag2
(g3
g4
Ntp2216
Rp2217
(dp2218
g8
F46.853658536585364
sg9
F0.8536585365853657
sg10
I2
sg11
F101558.69456171502
sbag2
(g3
g4
Ntp2219
Rp2220
(dp2221
g8
F46.853658536585364
sg9
F1.2195121951219514
sg10
I2
sg11
F101564.26938298137
sbag2
(g3
g4
Ntp2222
Rp2223
(dp2224
g8
F46.853658536585364
sg9
F1.5853658536585362
sg10
I2
sg11
F101573.0098324873
sbag2
(g3
g4
Ntp2225
Rp2226
(dp2227
g8
F46.853658536585364
sg9
F1.951219512195122
sg10
I2
sg11
F101590.08113422828
sbag2
(g3
g4
Ntp2228
Rp2229
(dp2230
g8
F46.853658536585364
sg9
F2.3170731707317067
sg10
I2
sg11
F101610.335975585
sbag2
(g3
g4
Ntp2231
Rp2232
(dp2233
g8
F46.853658536585364
sg9
F2.6829268292682924
sg10
I2
sg11
F101597.4119117362
sbag2
(g3
g4
Ntp2234
Rp2235
(dp2236
g8
F46.853658536585364
sg9
F3.048780487804878
sg10
I2
sg11
F101580.42583673618
sbag2
(g3
g4
Ntp2237
Rp2238
(dp2239
g8
F46.853658536585364
sg9
F3.414634146341463
sg10
I2
sg11
F101571.77436160127
sbag2
(g3
g4
Ntp2240
Rp2241
(dp2242
g8
F46.853658536585364
sg9
F3.7804878048780495
sg10
I2
sg11
F101567.05159962925
sbag2
(g3
g4
Ntp2243
Rp2244
(dp2245
g8
F46.853658536585364
sg9
F4.146341463414634
sg10
I2
sg11
F101567.26731360205
sbag2
(g3
g4
Ntp2246
Rp2247
(dp2248
g8
F46.853658536585364
sg9
F4.512195121951219
sg10
I2
sg11
F101575.89811542652
sbag2
(g3
g4
Ntp2249
Rp2250
(dp2251
g8
F46.853658536585364
sg9
F4.878048780487804
sg10
I2
sg11
F101592.38378450101
sbag2
(g3
g4
Ntp2252
Rp2253
(dp2254
g8
F46.853658536585364
sg9
F5.2439024390243905
sg10
I2
sg11
F101594.8221701287
sbag2
(g3
g4
Ntp2255
Rp2256
(dp2257
g8
F46.853658536585364
sg9
F5.609756097560975
sg10
I2
sg11
F101578.35865205213
sbag2
(g3
g4
Ntp2258
Rp2259
(dp2260
g8
F46.853658536585364
sg9
F5.97560975609756
sg10
I2
sg11
F101565.49161337173
sbag2
(g3
g4
Ntp2261
Rp2262
(dp2263
g8
F46.853658536585364
sg9
F6.341463414634147
sg10
I2
sg11
F101560.9704903052
sbag2
(g3
g4
Ntp2264
Rp2265
(dp2266
g8
F46.853658536585364
sg9
F6.7073170731707314
sg10
I2
sg11
F101564.31024570829
sbag2
(g3
g4
Ntp2267
Rp2268
(dp2269
g8
F46.853658536585364
sg9
F7.073170731707316
sg10
I2
sg11
F101573.73344654769
sbag2
(g3
g4
Ntp2270
Rp2271
(dp2272
g8
F46.853658536585364
sg9
F7.439024390243903
sg10
I2
sg11
F101581.70155308188
sbag2
(g3
g4
Ntp2273
Rp2274
(dp2275
g8
F46.853658536585364
sg9
F7.804878048780488
sg10
I2
sg11
F101578.98240699657
sbag2
(g3
g4
Ntp2276
Rp2277
(dp2278
g8
F46.853658536585364
sg9
F8.170731707317072
sg10
I2
sg11
F101567.28331834599
sbag2
(g3
g4
Ntp2279
Rp2280
(dp2281
g8
F46.853658536585364
sg9
F8.536585365853659
sg10
I2
sg11
F101553.24607589196
sbag2
(g3
g4
Ntp2282
Rp2283
(dp2284
g8
F46.853658536585364
sg9
F8.902439024390244
sg10
I2
sg11
F101540.06450038213
sbag2
(g3
g4
Ntp2285
Rp2286
(dp2287
g8
F46.853658536585364
sg9
F9.268292682926829
sg10
I2
sg11
F101528.54074424996
sbag2
(g3
g4
Ntp2288
Rp2289
(dp2290
g8
F46.853658536585364
sg9
F9.634146341463413
sg10
I2
sg11
F101518.7630421927
sbag2
(g3
g4
Ntp2291
Rp2292
(dp2293
g8
F46.853658536585364
sg9
F10.0
sg10
I2
sg11
F101510.62644857685
sbaa(lp2294
g2
(g3
g4
Ntp2295
Rp2296
(dp2297
g8
F46.609756097560975
sg9
F-5.0
sg10
I2
sg11
F101502.52210321501
sbag2
(g3
g4
Ntp2298
Rp2299
(dp2300
g8
F46.609756097560975
sg9
F-4.634146341463414
sg10
I2
sg11
F101500.6226198399
sbag2
(g3
g4
Ntp2301
Rp2302
(dp2303
g8
F46.609756097560975
sg9
F-4.2682926829268295
sg10
I2
sg11
F101498.27002188684
sbag2
(g3
g4
Ntp2304
Rp2305
(dp2306
g8
F46.609756097560975
sg9
F-3.902439024390244
sg10
I2
sg11
F101495.01342673182
sbag2
(g3
g4
Ntp2307
Rp2308
(dp2309
g8
F46.609756097560975
sg9
F-3.5365853658536586
sg10
I2
sg11
F101491.66647947353
sbag2
(g3
g4
Ntp2310
Rp2311
(dp2312
g8
F46.609756097560975
sg9
F-3.1707317073170733
sg10
I2
sg11
F101492.90278788721
sbag2
(g3
g4
Ntp2313
Rp2314
(dp2315
g8
F46.609756097560975
sg9
F-2.8048780487804876
sg10
I2
sg11
F101502.514764546
sbag2
(g3
g4
Ntp2316
Rp2317
(dp2318
g8
F46.609756097560975
sg9
F-2.4390243902439024
sg10
I2
sg11
F101514.69820180125
sbag2
(g3
g4
Ntp2319
Rp2320
(dp2321
g8
F46.609756097560975
sg9
F-2.073170731707317
sg10
I2
sg11
F101523.65826422478
sbag2
(g3
g4
Ntp2322
Rp2323
(dp2324
g8
F46.609756097560975
sg9
F-1.707317073170732
sg10
I2
sg11
F101529.18168354876
sbag2
(g3
g4
Ntp2325
Rp2326
(dp2327
g8
F46.609756097560975
sg9
F-1.3414634146341466
sg10
I2
sg11
F101533.62472929596
sbag2
(g3
g4
Ntp2328
Rp2329
(dp2330
g8
F46.609756097560975
sg9
F-0.975609756097561
sg10
I2
sg11
F101537.05411800035
sbag2
(g3
g4
Ntp2331
Rp2332
(dp2333
g8
F46.609756097560975
sg9
F-0.6097560975609753
sg10
I2
sg11
F101542.31727840712
sbag2
(g3
g4
Ntp2334
Rp2335
(dp2336
g8
F46.609756097560975
sg9
F-0.24390243902439046
sg10
I2
sg11
F101550.26882172999
sbag2
(g3
g4
Ntp2337
Rp2338
(dp2339
g8
F46.609756097560975
sg9
F0.12195121951219523
sg10
I2
sg11
F101558.50449520782
sbag2
(g3
g4
Ntp2340
Rp2341
(dp2342
g8
F46.609756097560975
sg9
F0.48780487804878003
sg10
I2
sg11
F101559.69131828996
sbag2
(g3
g4
Ntp2343
Rp2344
(dp2345
g8
F46.609756097560975
sg9
F0.8536585365853657
sg10
I2
sg11
F101563.66090606456
sbag2
(g3
g4
Ntp2346
Rp2347
(dp2348
g8
F46.609756097560975
sg9
F1.2195121951219514
sg10
I2
sg11
F101570.19212787224
sbag2
(g3
g4
Ntp2349
Rp2350
(dp2351
g8
F46.609756097560975
sg9
F1.5853658536585362
sg10
I2
sg11
F101575.06458026421
sbag2
(g3
g4
Ntp2352
Rp2353
(dp2354
g8
F46.609756097560975
sg9
F1.951219512195122
sg10
I2
sg11
F101583.44816492249
sbag2
(g3
g4
Ntp2355
Rp2356
(dp2357
g8
F46.609756097560975
sg9
F2.3170731707317067
sg10
I2
sg11
F101592.50822770817
sbag2
(g3
g4
Ntp2358
Rp2359
(dp2360
g8
F46.609756097560975
sg9
F2.6829268292682924
sg10
I2
sg11
F101588.05182601503
sbag2
(g3
g4
Ntp2361
Rp2362
(dp2363
g8
F46.609756097560975
sg9
F3.048780487804878
sg10
I2
sg11
F101580.17484451651
sbag2
(g3
g4
Ntp2364
Rp2365
(dp2366
g8
F46.609756097560975
sg9
F3.414634146341463
sg10
I2
sg11
F101572.77410836512
sbag2
(g3
g4
Ntp2367
Rp2368
(dp2369
g8
F46.609756097560975
sg9
F3.7804878048780495
sg10
I2
sg11
F101564.86701210828
sbag2
(g3
g4
Ntp2370
Rp2371
(dp2372
g8
F46.609756097560975
sg9
F4.146341463414634
sg10
I2
sg11
F101561.05828828146
sbag2
(g3
g4
Ntp2373
Rp2374
(dp2375
g8
F46.609756097560975
sg9
F4.512195121951219
sg10
I2
sg11
F101564.15014740507
sbag2
(g3
g4
Ntp2376
Rp2377
(dp2378
g8
F46.609756097560975
sg9
F4.878048780487804
sg10
I2
sg11
F101571.08042913857
sbag2
(g3
g4
Ntp2379
Rp2380
(dp2381
g8
F46.609756097560975
sg9
F5.2439024390243905
sg10
I2
sg11
F101571.49951089866
sbag2
(g3
g4
Ntp2382
Rp2383
(dp2384
g8
F46.609756097560975
sg9
F5.609756097560975
sg10
I2
sg11
F101562.59173910409
sbag2
(g3
g4
Ntp2385
Rp2386
(dp2387
g8
F46.609756097560975
sg9
F5.97560975609756
sg10
I2
sg11
F101552.96452368495
sbag2
(g3
g4
Ntp2388
Rp2389
(dp2390
g8
F46.609756097560975
sg9
F6.341463414634147
sg10
I2
sg11
F101547.86817934098
sbag2
(g3
g4
Ntp2391
Rp2392
(dp2393
g8
F46.609756097560975
sg9
F6.7073170731707314
sg10
I2
sg11
F101548.49458300622
sbag2
(g3
g4
Ntp2394
Rp2395
(dp2396
g8
F46.609756097560975
sg9
F7.073170731707316
sg10
I2
sg11
F101553.37807024758
sbag2
(g3
g4
Ntp2397
Rp2398
(dp2399
g8
F46.609756097560975
sg9
F7.439024390243903
sg10
I2
sg11
F101557.56771137138
sbag2
(g3
g4
Ntp2400
Rp2401
(dp2402
g8
F46.609756097560975
sg9
F7.804878048780488
sg10
I2
sg11
F101555.6494229609
sbag2
(g3
g4
Ntp2403
Rp2404
(dp2405
g8
F46.609756097560975
sg9
F8.170731707317072
sg10
I2
sg11
F101547.604053577
sbag2
(g3
g4
Ntp2406
Rp2407
(dp2408
g8
F46.609756097560975
sg9
F8.536585365853659
sg10
I2
sg11
F101536.96441304393
sbag2
(g3
g4
Ntp2409
Rp2410
(dp2411
g8
F46.609756097560975
sg9
F8.902439024390244
sg10
I2
sg11
F101526.30506508097
sbag2
(g3
g4
Ntp2412
Rp2413
(dp2414
g8
F46.609756097560975
sg9
F9.268292682926829
sg10
I2
sg11
F101516.66898327997
sbag2
(g3
g4
Ntp2415
Rp2416
(dp2417
g8
F46.609756097560975
sg9
F9.634146341463413
sg10
I2
sg11
F101508.3599232076
sbag2
(g3
g4
Ntp2418
Rp2419
(dp2420
g8
F46.609756097560975
sg9
F10.0
sg10
I2
sg11
F101501.40402705246
sbaa(lp2421
g2
(g3
g4
Ntp2422
Rp2423
(dp2424
g8
F46.36585365853659
sg9
F-5.0
sg10
I2
sg11
F101505.51660883421
sbag2
(g3
g4
Ntp2425
Rp2426
(dp2427
g8
F46.36585365853659
sg9
F-4.634146341463414
sg10
I2
sg11
F101504.16086514722
sbag2
(g3
g4
Ntp2428
Rp2429
(dp2430
g8
F46.36585365853659
sg9
F-4.2682926829268295
sg10
I2
sg11
F101502.65838401155
sbag2
(g3
g4
Ntp2431
Rp2432
(dp2433
g8
F46.36585365853659
sg9
F-3.902439024390244
sg10
I2
sg11
F101501.06273797115
sbag2
(g3
g4
Ntp2434
Rp2435
(dp2436
g8
F46.36585365853659
sg9
F-3.5365853658536586
sg10
I2
sg11
F101500.37220827788
sbag2
(g3
g4
Ntp2437
Rp2438
(dp2439
g8
F46.36585365853659
sg9
F-3.1707317073170733
sg10
I2
sg11
F101503.06618743502
sbag2
(g3
g4
Ntp2440
Rp2441
(dp2442
g8
F46.36585365853659
sg9
F-2.8048780487804876
sg10
I2
sg11
F101510.43474754998
sbag2
(g3
g4
Ntp2443
Rp2444
(dp2445
g8
F46.36585365853659
sg9
F-2.4390243902439024
sg10
I2
sg11
F101519.83894609747
sbag2
(g3
g4
Ntp2446
Rp2447
(dp2448
g8
F46.36585365853659
sg9
F-2.073170731707317
sg10
I2
sg11
F101528.76101546756
sbag2
(g3
g4
Ntp2449
Rp2450
(dp2451
g8
F46.36585365853659
sg9
F-1.707317073170732
sg10
I2
sg11
F101537.75327605294
sbag2
(g3
g4
Ntp2452
Rp2453
(dp2454
g8
F46.36585365853659
sg9
F-1.3414634146341466
sg10
I2
sg11
F101542.71450809886
sbag2
(g3
g4
Ntp2455
Rp2456
(dp2457
g8
F46.36585365853659
sg9
F-0.975609756097561
sg10
I2
sg11
F101540.99865058203
sbag2
(g3
g4
Ntp2458
Rp2459
(dp2460
g8
F46.36585365853659
sg9
F-0.6097560975609753
sg10
I2
sg11
F101543.81993177452
sbag2
(g3
g4
Ntp2461
Rp2462
(dp2463
g8
F46.36585365853659
sg9
F-0.24390243902439046
sg10
I2
sg11
F101550.8916772026
sbag2
(g3
g4
Ntp2464
Rp2465
(dp2466
g8
F46.36585365853659
sg9
F0.12195121951219523
sg10
I2
sg11
F101558.02223232207
sbag2
(g3
g4
Ntp2467
Rp2468
(dp2469
g8
F46.36585365853659
sg9
F0.48780487804878003
sg10
I2
sg11
F101561.15223130523
sbag2
(g3
g4
Ntp2470
Rp2471
(dp2472
g8
F46.36585365853659
sg9
F0.8536585365853657
sg10
I2
sg11
F101571.21335205312
sbag2
(g3
g4
Ntp2473
Rp2474
(dp2475
g8
F46.36585365853659
sg9
F1.2195121951219514
sg10
I2
sg11
F101580.31974594625
sbag2
(g3
g4
Ntp2476
Rp2477
(dp2478
g8
F46.36585365853659
sg9
F1.5853658536585362
sg10
I2
sg11
F101579.2577118527
sbag2
(g3
g4
Ntp2479
Rp2480
(dp2481
g8
F46.36585365853659
sg9
F1.951219512195122
sg10
I2
sg11
F101579.53238407303
sbag2
(g3
g4
Ntp2482
Rp2483
(dp2484
g8
F46.36585365853659
sg9
F2.3170731707317067
sg10
I2
sg11
F101582.55006737985
sbag2
(g3
g4
Ntp2485
Rp2486
(dp2487
g8
F46.36585365853659
sg9
F2.6829268292682924
sg10
I2
sg11
F101584.0185027853
sbag2
(g3
g4
Ntp2488
Rp2489
(dp2490
g8
F46.36585365853659
sg9
F3.048780487804878
sg10
I2
sg11
F101585.58456746407
sbag2
(g3
g4
Ntp2491
Rp2492
(dp2493
g8
F46.36585365853659
sg9
F3.414634146341463
sg10
I2
sg11
F101578.34821763987
sbag2
(g3
g4
Ntp2494
Rp2495
(dp2496
g8
F46.36585365853659
sg9
F3.7804878048780495
sg10
I2
sg11
F101564.02451687695
sbag2
(g3
g4
Ntp2497
Rp2498
(dp2499
g8
F46.36585365853659
sg9
F4.146341463414634
sg10
I2
sg11
F101554.85816369212
sbag2
(g3
g4
Ntp2500
Rp2501
(dp2502
g8
F46.36585365853659
sg9
F4.512195121951219
sg10
I2
sg11
F101554.17026671054
sbag2
(g3
g4
Ntp2503
Rp2504
(dp2505
g8
F46.36585365853659
sg9
F4.878048780487804
sg10
I2
sg11
F101557.8235250932
sbag2
(g3
g4
Ntp2506
Rp2507
(dp2508
g8
F46.36585365853659
sg9
F5.2439024390243905
sg10
I2
sg11
F101557.19833816556
sbag2
(g3
g4
Ntp2509
Rp2510
(dp2511
g8
F46.36585365853659
sg9
F5.609756097560975
sg10
I2
sg11
F101549.52216306711
sbag2
(g3
g4
Ntp2512
Rp2513
(dp2514
g8
F46.36585365853659
sg9
F5.97560975609756
sg10
I2
sg11
F101540.11792011134
sbag2
(g3
g4
Ntp2515
Rp2516
(dp2517
g8
F46.36585365853659
sg9
F6.341463414634147
sg10
I2
sg11
F101533.7420648955
sbag2
(g3
g4
Ntp2518
Rp2519
(dp2520
g8
F46.36585365853659
sg9
F6.7073170731707314
sg10
I2
sg11
F101531.83153622708
sbag2
(g3
g4
Ntp2521
Rp2522
(dp2523
g8
F46.36585365853659
sg9
F7.073170731707316
sg10
I2
sg11
F101533.25479698519
sbag2
(g3
g4
Ntp2524
Rp2525
(dp2526
g8
F46.36585365853659
sg9
F7.439024390243903
sg10
I2
sg11
F101534.77567117772
sbag2
(g3
g4
Ntp2527
Rp2528
(dp2529
g8
F46.36585365853659
sg9
F7.804878048780488
sg10
I2
sg11
F101533.0554716765
sbag2
(g3
g4
Ntp2530
Rp2531
(dp2532
g8
F46.36585365853659
sg9
F8.170731707317072
sg10
I2
sg11
F101527.48137609691
sbag2
(g3
g4
Ntp2533
Rp2534
(dp2535
g8
F46.36585365853659
sg9
F8.536585365853659
sg10
I2
sg11
F101519.7290005111
sbag2
(g3
g4
Ntp2536
Rp2537
(dp2538
g8
F46.36585365853659
sg9
F8.902439024390244
sg10
I2
sg11
F101511.5307223912
sbag2
(g3
g4
Ntp2539
Rp2540
(dp2541
g8
F46.36585365853659
sg9
F9.268292682926829
sg10
I2
sg11
F101503.85335341314
sbag2
(g3
g4
Ntp2542
Rp2543
(dp2544
g8
F46.36585365853659
sg9
F9.634146341463413
sg10
I2
sg11
F101497.10775754579
sbag2
(g3
g4
Ntp2545
Rp2546
(dp2547
g8
F46.36585365853659
sg9
F10.0
sg10
I2
sg11
F101491.42816567366
sbaa(lp2548
g2
(g3
g4
Ntp2549
Rp2550
(dp2551
g8
F46.1219512195122
sg9
F-5.0
sg10
I2
sg11
F101508.37445344366
sbag2
(g3
g4
Ntp2552
Rp2553
(dp2554
g8
F46.1219512195122
sg9
F-4.634146341463414
sg10
I2
sg11
F101507.56919068593
sbag2
(g3
g4
Ntp2555
Rp2556
(dp2557
g8
F46.1219512195122
sg9
F-4.2682926829268295
sg10
I2
sg11
F101506.87203740816
sbag2
(g3
g4
Ntp2558
Rp2559
(dp2560
g8
F46.1219512195122
sg9
F-3.902439024390244
sg10
I2
sg11
F101506.52928712974
sbag2
(g3
g4
Ntp2561
Rp2562
(dp2563
g8
F46.1219512195122
sg9
F-3.5365853658536586
sg10
I2
sg11
F101507.33115347594
sbag2
(g3
g4
Ntp2564
Rp2565
(dp2566
g8
F46.1219512195122
sg9
F-3.1707317073170733
sg10
I2
sg11
F101510.52861535022
sbag2
(g3
g4
Ntp2567
Rp2568
(dp2569
g8
F46.1219512195122
sg9
F-2.8048780487804876
sg10
I2
sg11
F101516.5424040933
sbag2
(g3
g4
Ntp2570
Rp2571
(dp2572
g8
F46.1219512195122
sg9
F-2.4390243902439024
sg10
I2
sg11
F101524.22671985735
sbag2
(g3
g4
Ntp2573
Rp2574
(dp2575
g8
F46.1219512195122
sg9
F-2.073170731707317
sg10
I2
sg11
F101532.88476340658
sbag2
(g3
g4
Ntp2576
Rp2577
(dp2578
g8
F46.1219512195122
sg9
F-1.707317073170732
sg10
I2
sg11
F101543.7178577056
sbag2
(g3
g4
Ntp2579
Rp2580
(dp2581
g8
F46.1219512195122
sg9
F-1.3414634146341466
sg10
I2
sg11
F101549.18246543968
sbag2
(g3
g4
Ntp2582
Rp2583
(dp2584
g8
F46.1219512195122
sg9
F-0.975609756097561
sg10
I2
sg11
F101543.34106743058
sbag2
(g3
g4
Ntp2585
Rp2586
(dp2587
g8
F46.1219512195122
sg9
F-0.6097560975609753
sg10
I2
sg11
F101544.20998856827
sbag2
(g3
g4
Ntp2588
Rp2589
(dp2590
g8
F46.1219512195122
sg9
F-0.24390243902439046
sg10
I2
sg11
F101550.50260720114
sbag2
(g3
g4
Ntp2591
Rp2592
(dp2593
g8
F46.1219512195122
sg9
F0.12195121951219523
sg10
I2
sg11
F101557.77122379151
sbag2
(g3
g4
Ntp2594
Rp2595
(dp2596
g8
F46.1219512195122
sg9
F0.48780487804878003
sg10
I2
sg11
F101565.54054911161
sbag2
(g3
g4
Ntp2597
Rp2598
(dp2599
g8
F46.1219512195122
sg9
F0.8536585365853657
sg10
I2
sg11
F101583.26676359824
sbag2
(g3
g4
Ntp2600
Rp2601
(dp2602
g8
F46.1219512195122
sg9
F1.2195121951219514
sg10
I2
sg11
F101597.01122573041
sbag2
(g3
g4
Ntp2603
Rp2604
(dp2605
g8
F46.1219512195122
sg9
F1.5853658536585362
sg10
I2
sg11
F101585.95641162407
sbag2
(g3
g4
Ntp2606
Rp2607
(dp2608
g8
F46.1219512195122
sg9
F1.951219512195122
sg10
I2
sg11
F101578.88748199123
sbag2
(g3
g4
Ntp2609
Rp2610
(dp2611
g8
F46.1219512195122
sg9
F2.3170731707317067
sg10
I2
sg11
F101579.07975362452
sbag2
(g3
g4
Ntp2612
Rp2613
(dp2614
g8
F46.1219512195122
sg9
F2.6829268292682924
sg10
I2
sg11
F101586.85455352378
sbag2
(g3
g4
Ntp2615
Rp2616
(dp2617
g8
F46.1219512195122
sg9
F3.048780487804878
sg10
I2
sg11
F101602.1871164919
sbag2
(g3
g4
Ntp2618
Rp2619
(dp2620
g8
F46.1219512195122
sg9
F3.414634146341463
sg10
I2
sg11
F101591.47930596488
sbag2
(g3
g4
Ntp2621
Rp2622
(dp2623
g8
F46.1219512195122
sg9
F3.7804878048780495
sg10
I2
sg11
F101564.28639030278
sbag2
(g3
g4
Ntp2624
Rp2625
(dp2626
g8
F46.1219512195122
sg9
F4.146341463414634
sg10
I2
sg11
F101548.41876511367
sbag2
(g3
g4
Ntp2627
Rp2628
(dp2629
g8
F46.1219512195122
sg9
F4.512195121951219
sg10
I2
sg11
F101547.02490089522
sbag2
(g3
g4
Ntp2630
Rp2631
(dp2632
g8
F46.1219512195122
sg9
F4.878048780487804
sg10
I2
sg11
F101556.18342170594
sbag2
(g3
g4
Ntp2633
Rp2634
(dp2635
g8
F46.1219512195122
sg9
F5.2439024390243905
sg10
I2
sg11
F101556.31478290912
sbag2
(g3
g4
Ntp2636
Rp2637
(dp2638
g8
F46.1219512195122
sg9
F5.609756097560975
sg10
I2
sg11
F101541.63658837517
sbag2
(g3
g4
Ntp2639
Rp2640
(dp2641
g8
F46.1219512195122
sg9
F5.97560975609756
sg10
I2
sg11
F101527.74651644842
sbag2
(g3
g4
Ntp2642
Rp2643
(dp2644
g8
F46.1219512195122
sg9
F6.341463414634147
sg10
I2
sg11
F101518.78276764219
sbag2
(g3
g4
Ntp2645
Rp2646
(dp2647
g8
F46.1219512195122
sg9
F6.7073170731707314
sg10
I2
sg11
F101514.4202203644
sbag2
(g3
g4
Ntp2648
Rp2649
(dp2650
g8
F46.1219512195122
sg9
F7.073170731707316
sg10
I2
sg11
F101513.2285842149
sbag2
(g3
g4
Ntp2651
Rp2652
(dp2653
g8
F46.1219512195122
sg9
F7.439024390243903
sg10
I2
sg11
F101512.90002656636
sbag2
(g3
g4
Ntp2654
Rp2655
(dp2656
g8
F46.1219512195122
sg9
F7.804878048780488
sg10
I2
sg11
F101511.21035533896
sbag2
(g3
g4
Ntp2657
Rp2658
(dp2659
g8
F46.1219512195122
sg9
F8.170731707317072
sg10
I2
sg11
F101507.36351757741
sbag2
(g3
g4
Ntp2660
Rp2661
(dp2662
g8
F46.1219512195122
sg9
F8.536585365853659
sg10
I2
sg11
F101501.97495309271
sbag2
(g3
g4
Ntp2663
Rp2664
(dp2665
g8
F46.1219512195122
sg9
F8.902439024390244
sg10
I2
sg11
F101496.0350911869
sbag2
(g3
g4
Ntp2666
Rp2667
(dp2668
g8
F46.1219512195122
sg9
F9.268292682926829
sg10
I2
sg11
F101490.27781327882
sbag2
(g3
g4
Ntp2669
Rp2670
(dp2671
g8
F46.1219512195122
sg9
F9.634146341463413
sg10
I2
sg11
F101485.12123288463
sbag2
(g3
g4
Ntp2672
Rp2673
(dp2674
g8
F46.1219512195122
sg9
F10.0
sg10
I2
sg11
F101480.77060791987
sbaa(lp2675
g2
(g3
g4
Ntp2676
Rp2677
(dp2678
g8
F45.8780487804878
sg9
F-5.0
sg10
I2
sg11
F101511.06541701795
sbag2
(g3
g4
Ntp2679
Rp2680
(dp2681
g8
F45.8780487804878
sg9
F-4.634146341463414
sg10
I2
sg11
F101510.76282903379
sbag2
(g3
g4
Ntp2682
Rp2683
(dp2684
g8
F45.8780487804878
sg9
F-4.2682926829268295
sg10
I2
sg11
F101510.73101062031
sbag2
(g3
g4
Ntp2685
Rp2686
(dp2687
g8
F45.8780487804878
sg9
F-3.902439024390244
sg10
I2
sg11
F101511.23865850247
sbag2
(g3
g4
Ntp2688
Rp2689
(dp2690
g8
F45.8780487804878
sg9
F-3.5365853658536586
sg10
I2
sg11
F101512.81929928745
sbag2
(g3
g4
Ntp2691
Rp2692
(dp2693
g8
F45.8780487804878
sg9
F-3.1707317073170733
sg10
I2
sg11
F101516.08799200166
sbag2
(g3
g4
Ntp2694
Rp2695
(dp2696
g8
F45.8780487804878
sg9
F-2.8048780487804876
sg10
I2
sg11
F101521.15279982773
sbag2
(g3
g4
Ntp2697
Rp2698
(dp2699
g8
F45.8780487804878
sg9
F-2.4390243902439024
sg10
I2
sg11
F101527.47270397961
sbag2
(g3
g4
Ntp2700
Rp2701
(dp2702
g8
F45.8780487804878
sg9
F-2.073170731707317
sg10
I2
sg11
F101534.84219834057
sbag2
(g3
g4
Ntp2703
Rp2704
(dp2705
g8
F45.8780487804878
sg9
F-1.707317073170732
sg10
I2
sg11
F101543.69964338256
sbag2
(g3
g4
Ntp2706
Rp2707
(dp2708
g8
F45.8780487804878
sg9
F-1.3414634146341466
sg10
I2
sg11
F101547.85663009959
sbag2
(g3
g4
Ntp2709
Rp2710
(dp2711
g8
F45.8780487804878
sg9
F-0.975609756097561
sg10
I2
sg11
F101542.736635125
sbag2
(g3
g4
Ntp2712
Rp2713
(dp2714
g8
F45.8780487804878
sg9
F-0.6097560975609753
sg10
I2
sg11
F101543.00856890512
sbag2
(g3
g4
Ntp2715
Rp2716
(dp2717
g8
F45.8780487804878
sg9
F-0.24390243902439046
sg10
I2
sg11
F101549.3314149337
sbag2
(g3
g4
Ntp2718
Rp2719
(dp2720
g8
F45.8780487804878
sg9
F0.12195121951219523
sg10
I2
sg11
F101558.15704475174
sbag2
(g3
g4
Ntp2721
Rp2722
(dp2723
g8
F45.8780487804878
sg9
F0.48780487804878003
sg10
I2
sg11
F101569.90125382351
sbag2
(g3
g4
Ntp2724
Rp2725
(dp2726
g8
F45.8780487804878
sg9
F0.8536585365853657
sg10
I2
sg11
F101592.27337119337
sbag2
(g3
g4
Ntp2727
Rp2728
(dp2729
g8
F45.8780487804878
sg9
F1.2195121951219514
sg10
I2
sg11
F101609.49327156124
sbag2
(g3
g4
Ntp2730
Rp2731
(dp2732
g8
F45.8780487804878
sg9
F1.5853658536585362
sg10
I2
sg11
F101590.9978458852
sbag2
(g3
g4
Ntp2733
Rp2734
(dp2735
g8
F45.8780487804878
sg9
F1.951219512195122
sg10
I2
sg11
F101579.53951745355
sbag2
(g3
g4
Ntp2736
Rp2737
(dp2738
g8
F45.8780487804878
sg9
F2.3170731707317067
sg10
I2
sg11
F101577.83971141027
sbag2
(g3
g4
Ntp2739
Rp2740
(dp2741
g8
F45.8780487804878
sg9
F2.6829268292682924
sg10
I2
sg11
F101591.00616721294
sbag2
(g3
g4
Ntp2742
Rp2743
(dp2744
g8
F45.8780487804878
sg9
F3.048780487804878
sg10
I2
sg11
F101623.6817161017
sbag2
(g3
g4
Ntp2745
Rp2746
(dp2747
g8
F45.8780487804878
sg9
F3.414634146341463
sg10
I2
sg11
F101606.04468137592
sbag2
(g3
g4
Ntp2748
Rp2749
(dp2750
g8
F45.8780487804878
sg9
F3.7804878048780495
sg10
I2
sg11
F101562.50337167522
sbag2
(g3
g4
Ntp2751
Rp2752
(dp2753
g8
F45.8780487804878
sg9
F4.146341463414634
sg10
I2
sg11
F101540.17313227589
sbag2
(g3
g4
Ntp2754
Rp2755
(dp2756
g8
F45.8780487804878
sg9
F4.512195121951219
sg10
I2
sg11
F101540.72230293853
sbag2
(g3
g4
Ntp2757
Rp2758
(dp2759
g8
F45.8780487804878
sg9
F4.878048780487804
sg10
I2
sg11
F101565.21955433175
sbag2
(g3
g4
Ntp2760
Rp2761
(dp2762
g8
F45.8780487804878
sg9
F5.2439024390243905
sg10
I2
sg11
F101567.61611743142
sbag2
(g3
g4
Ntp2763
Rp2764
(dp2765
g8
F45.8780487804878
sg9
F5.609756097560975
sg10
I2
sg11
F101536.79534252237
sbag2
(g3
g4
Ntp2766
Rp2767
(dp2768
g8
F45.8780487804878
sg9
F5.97560975609756
sg10
I2
sg11
F101514.97830735375
sbag2
(g3
g4
Ntp2769
Rp2770
(dp2771
g8
F45.8780487804878
sg9
F6.341463414634147
sg10
I2
sg11
F101502.6460527951
sbag2
(g3
g4
Ntp2772
Rp2773
(dp2774
g8
F45.8780487804878
sg9
F6.7073170731707314
sg10
I2
sg11
F101495.99882380167
sbag2
(g3
g4
Ntp2775
Rp2776
(dp2777
g8
F45.8780487804878
sg9
F7.073170731707316
sg10
I2
sg11
F101492.8352814496
sbag2
(g3
g4
Ntp2778
Rp2779
(dp2780
g8
F45.8780487804878
sg9
F7.439024390243903
sg10
I2
sg11
F101491.28870941888
sbag2
(g3
g4
Ntp2781
Rp2782
(dp2783
g8
F45.8780487804878
sg9
F7.804878048780488
sg10
I2
sg11
F101489.73310048948
sbag2
(g3
g4
Ntp2784
Rp2785
(dp2786
g8
F45.8780487804878
sg9
F8.170731707317072
sg10
I2
sg11
F101487.28630080864
sbag2
(g3
g4
Ntp2787
Rp2788
(dp2789
g8
F45.8780487804878
sg9
F8.536585365853659
sg10
I2
sg11
F101483.91417008129
sbag2
(g3
g4
Ntp2790
Rp2791
(dp2792
g8
F45.8780487804878
sg9
F8.902439024390244
sg10
I2
sg11
F101480.02733880797
sbag2
(g3
g4
Ntp2793
Rp2794
(dp2795
g8
F45.8780487804878
sg9
F9.268292682926829
sg10
I2
sg11
F101476.09798664718
sbag2
(g3
g4
Ntp2796
Rp2797
(dp2798
g8
F45.8780487804878
sg9
F9.634146341463413
sg10
I2
sg11
F101472.50400202264
sbag2
(g3
g4
Ntp2799
Rp2800
(dp2801
g8
F45.8780487804878
sg9
F10.0
sg10
I2
sg11
F101469.49724146827
sbaa(lp2802
g2
(g3
g4
Ntp2803
Rp2804
(dp2805
g8
F45.63414634146341
sg9
F-5.0
sg10
I2
sg11
F101513.56189763983
sbag2
(g3
g4
Ntp2806
Rp2807
(dp2808
g8
F45.63414634146341
sg9
F-4.634146341463414
sg10
I2
sg11
F101513.68730172598
sbag2
(g3
g4
Ntp2809
Rp2810
(dp2811
g8
F45.63414634146341
sg9
F-4.2682926829268295
sg10
I2
sg11
F101514.1653251178
sbag2
(g3
g4
Ntp2812
Rp2813
(dp2814
g8
F45.63414634146341
sg9
F-3.902439024390244
sg10
I2
sg11
F101515.22012078819
sbag2
(g3
g4
Ntp2815
Rp2816
(dp2817
g8
F45.63414634146341
sg9
F-3.5365853658536586
sg10
I2
sg11
F101517.1818420194
sbag2
(g3
g4
Ntp2818
Rp2819
(dp2820
g8
F45.63414634146341
sg9
F-3.1707317073170733
sg10
I2
sg11
F101520.33448303974
sbag2
(g3
g4
Ntp2821
Rp2822
(dp2823
g8
F45.63414634146341
sg9
F-2.8048780487804876
sg10
I2
sg11
F101524.64081036413
sbag2
(g3
g4
Ntp2824
Rp2825
(dp2826
g8
F45.63414634146341
sg9
F-2.4390243902439024
sg10
I2
sg11
F101529.71653410226
sbag2
(g3
g4
Ntp2827
Rp2828
(dp2829
g8
F45.63414634146341
sg9
F-2.073170731707317
sg10
I2
sg11
F101535.19339170012
sbag2
(g3
g4
Ntp2830
Rp2831
(dp2832
g8
F45.63414634146341
sg9
F-1.707317073170732
sg10
I2
sg11
F101540.49787702577
sbag2
(g3
g4
Ntp2833
Rp2834
(dp2835
g8
F45.63414634146341
sg9
F-1.3414634146341466
sg10
I2
sg11
F101542.2194376843
sbag2
(g3
g4
Ntp2836
Rp2837
(dp2838
g8
F45.63414634146341
sg9
F-0.975609756097561
sg10
I2
sg11
F101538.73056752201
sbag2
(g3
g4
Ntp2839
Rp2840
(dp2841
g8
F45.63414634146341
sg9
F-0.6097560975609753
sg10
I2
sg11
F101538.9878299865
sbag2
(g3
g4
Ntp2842
Rp2843
(dp2844
g8
F45.63414634146341
sg9
F-0.24390243902439046
sg10
I2
sg11
F101546.65720973346
sbag2
(g3
g4
Ntp2845
Rp2846
(dp2847
g8
F45.63414634146341
sg9
F0.12195121951219523
sg10
I2
sg11
F101557.95996422907
sbag2
(g3
g4
Ntp2848
Rp2849
(dp2850
g8
F45.63414634146341
sg9
F0.48780487804878003
sg10
I2
sg11
F101571.71197850676
sbag2
(g3
g4
Ntp2851
Rp2852
(dp2853
g8
F45.63414634146341
sg9
F0.8536585365853657
sg10
I2
sg11
F101590.46644368683
sbag2
(g3
g4
Ntp2854
Rp2855
(dp2856
g8
F45.63414634146341
sg9
F1.2195121951219514
sg10
I2
sg11
F101601.95936516719
sbag2
(g3
g4
Ntp2857
Rp2858
(dp2859
g8
F45.63414634146341
sg9
F1.5853658536585362
sg10
I2
sg11
F101591.26086169042
sbag2
(g3
g4
Ntp2860
Rp2861
(dp2862
g8
F45.63414634146341
sg9
F1.951219512195122
sg10
I2
sg11
F101580.45430642451
sbag2
(g3
g4
Ntp2863
Rp2864
(dp2865
g8
F45.63414634146341
sg9
F2.3170731707317067
sg10
I2
sg11
F101576.08340032438
sbag2
(g3
g4
Ntp2866
Rp2867
(dp2868
g8
F45.63414634146341
sg9
F2.6829268292682924
sg10
I2
sg11
F101587.34093671506
sbag2
(g3
g4
Ntp2869
Rp2870
(dp2871
g8
F45.63414634146341
sg9
F3.048780487804878
sg10
I2
sg11
F101618.24773183049
sbag2
(g3
g4
Ntp2872
Rp2873
(dp2874
g8
F45.63414634146341
sg9
F3.414634146341463
sg10
I2
sg11
F101599.81449871101
sbag2
(g3
g4
Ntp2875
Rp2876
(dp2877
g8
F45.63414634146341
sg9
F3.7804878048780495
sg10
I2
sg11
F101553.37807231898
sbag2
(g3
g4
Ntp2878
Rp2879
(dp2880
g8
F45.63414634146341
sg9
F4.146341463414634
sg10
I2
sg11
F101527.76594482729
sbag2
(g3
g4
Ntp2881
Rp2882
(dp2883
g8
F45.63414634146341
sg9
F4.512195121951219
sg10
I2
sg11
F101528.76758817473
sbag2
(g3
g4
Ntp2884
Rp2885
(dp2886
g8
F45.63414634146341
sg9
F4.878048780487804
sg10
I2
sg11
F101563.82529949429
sbag2
(g3
g4
Ntp2887
Rp2888
(dp2889
g8
F45.63414634146341
sg9
F5.2439024390243905
sg10
I2
sg11
F101567.76958524232
sbag2
(g3
g4
Ntp2890
Rp2891
(dp2892
g8
F45.63414634146341
sg9
F5.609756097560975
sg10
I2
sg11
F101526.32946144804
sbag2
(g3
g4
Ntp2893
Rp2894
(dp2895
g8
F45.63414634146341
sg9
F5.97560975609756
sg10
I2
sg11
F101499.31855404144
sbag2
(g3
g4
Ntp2896
Rp2897
(dp2898
g8
F45.63414634146341
sg9
F6.341463414634147
sg10
I2
sg11
F101484.48271935363
sbag2
(g3
g4
Ntp2899
Rp2900
(dp2901
g8
F45.63414634146341
sg9
F6.7073170731707314
sg10
I2
sg11
F101476.06229101149
sbag2
(g3
g4
Ntp2902
Rp2903
(dp2904
g8
F45.63414634146341
sg9
F7.073170731707316
sg10
I2
sg11
F101471.5002106646
sbag2
(g3
g4
Ntp2905
Rp2906
(dp2907
g8
F45.63414634146341
sg9
F7.439024390243903
sg10
I2
sg11
F101469.2898386695
sbag2
(g3
g4
Ntp2908
Rp2909
(dp2910
g8
F45.63414634146341
sg9
F7.804878048780488
sg10
I2
sg11
F101468.16386237874
sbag2
(g3
g4
Ntp2911
Rp2912
(dp2913
g8
F45.63414634146341
sg9
F8.170731707317072
sg10
I2
sg11
F101467.11754545534
sbag2
(g3
g4
Ntp2914
Rp2915
(dp2916
g8
F45.63414634146341
sg9
F8.536585365853659
sg10
I2
sg11
F101465.62610471057
sbag2
(g3
g4
Ntp2917
Rp2918
(dp2919
g8
F45.63414634146341
sg9
F8.902439024390244
sg10
I2
sg11
F101463.64749945175
sbag2
(g3
g4
Ntp2920
Rp2921
(dp2922
g8
F45.63414634146341
sg9
F9.268292682926829
sg10
I2
sg11
F101461.4363582918
sbag2
(g3
g4
Ntp2923
Rp2924
(dp2925
g8
F45.63414634146341
sg9
F9.634146341463413
sg10
I2
sg11
F101459.34089505013
sbag2
(g3
g4
Ntp2926
Rp2927
(dp2928
g8
F45.63414634146341
sg9
F10.0
sg10
I2
sg11
F101457.66136227458
sbaa(lp2929
g2
(g3
g4
Ntp2930
Rp2931
(dp2932
g8
F45.390243902439025
sg9
F-5.0
sg10
I2
sg11
F101515.84670222751
sbag2
(g3
g4
Ntp2933
Rp2934
(dp2935
g8
F45.390243902439025
sg9
F-4.634146341463414
sg10
I2
sg11
F101516.32054964142
sbag2
(g3
g4
Ntp2936
Rp2937
(dp2938
g8
F45.390243902439025
sg9
F-4.2682926829268295
sg10
I2
sg11
F101517.17406776828
sbag2
(g3
g4
Ntp2939
Rp2940
(dp2941
g8
F45.390243902439025
sg9
F-3.902439024390244
sg10
I2
sg11
F101518.5724681773
sbag2
(g3
g4
Ntp2942
Rp2943
(dp2944
g8
F45.390243902439025
sg9
F-3.5365853658536586
sg10
I2
sg11
F101520.70513939558
sbag2
(g3
g4
Ntp2945
Rp2946
(dp2947
g8
F45.390243902439025
sg9
F-3.1707317073170733
sg10
I2
sg11
F101523.6772062107
sbag2
(g3
g4
Ntp2948
Rp2949
(dp2950
g8
F45.390243902439025
sg9
F-2.8048780487804876
sg10
I2
sg11
F101527.3643577384
sbag2
(g3
g4
Ntp2951
Rp2952
(dp2953
g8
F45.390243902439025
sg9
F-2.4390243902439024
sg10
I2
sg11
F101531.37738768884
sbag2
(g3
g4
Ntp2954
Rp2955
(dp2956
g8
F45.390243902439025
sg9
F-2.073170731707317
sg10
I2
sg11
F101535.12247448246
sbag2
(g3
g4
Ntp2957
Rp2958
(dp2959
g8
F45.390243902439025
sg9
F-1.707317073170732
sg10
I2
sg11
F101537.5518851374
sbag2
(g3
g4
Ntp2960
Rp2961
(dp2962
g8
F45.390243902439025
sg9
F-1.3414634146341466
sg10
I2
sg11
F101536.4062487874
sbag2
(g3
g4
Ntp2963
Rp2964
(dp2965
g8
F45.390243902439025
sg9
F-0.975609756097561
sg10
I2
sg11
F101530.63240793553
sbag2
(g3
g4
Ntp2966
Rp2967
(dp2968
g8
F45.390243902439025
sg9
F-0.6097560975609753
sg10
I2
sg11
F101529.61000811965
sbag2
(g3
g4
Ntp2969
Rp2970
(dp2971
g8
F45.390243902439025
sg9
F-0.24390243902439046
sg10
I2
sg11
F101541.42907522878
sbag2
(g3
g4
Ntp2972
Rp2973
(dp2974
g8
F45.390243902439025
sg9
F0.12195121951219523
sg10
I2
sg11
F101556.90493585779
sbag2
(g3
g4
Ntp2975
Rp2976
(dp2977
g8
F45.390243902439025
sg9
F0.48780487804878003
sg10
I2
sg11
F101572.25048538118
sbag2
(g3
g4
Ntp2978
Rp2979
(dp2980
g8
F45.390243902439025
sg9
F0.8536585365853657
sg10
I2
sg11
F101587.8331514839
sbag2
(g3
g4
Ntp2981
Rp2982
(dp2983
g8
F45.390243902439025
sg9
F1.2195121951219514
sg10
I2
sg11
F101597.33421288784
sbag2
(g3
g4
Ntp2984
Rp2985
(dp2986
g8
F45.390243902439025
sg9
F1.5853658536585362
sg10
I2
sg11
F101594.61864383171
sbag2
(g3
g4
Ntp2987
Rp2988
(dp2989
g8
F45.390243902439025
sg9
F1.951219512195122
sg10
I2
sg11
F101582.79315185126
sbag2
(g3
g4
Ntp2990
Rp2991
(dp2992
g8
F45.390243902439025
sg9
F2.3170731707317067
sg10
I2
sg11
F101573.37722982322
sbag2
(g3
g4
Ntp2993
Rp2994
(dp2995
g8
F45.390243902439025
sg9
F2.6829268292682924
sg10
I2
sg11
F101575.56679960426
sbag2
(g3
g4
Ntp2996
Rp2997
(dp2998
g8
F45.390243902439025
sg9
F3.048780487804878
sg10
I2
sg11
F101587.08299436938
sbag2
(g3
g4
Ntp2999
Rp3000
(dp3001
g8
F45.390243902439025
sg9
F3.414634146341463
sg10
I2
sg11
F101571.87395103631
sbag2
(g3
g4
Ntp3002
Rp3003
(dp3004
g8
F45.390243902439025
sg9
F3.7804878048780495
sg10
I2
sg11
F101535.7902246342
sbag2
(g3
g4
Ntp3005
Rp3006
(dp3007
g8
F45.390243902439025
sg9
F4.146341463414634
sg10
I2
sg11
F101509.51379362331
sbag2
(g3
g4
Ntp3008
Rp3009
(dp3010
g8
F45.390243902439025
sg9
F4.512195121951219
sg10
I2
sg11
F101504.60091599554
sbag2
(g3
g4
Ntp3011
Rp3012
(dp3013
g8
F45.390243902439025
sg9
F4.878048780487804
sg10
I2
sg11
F101528.44144131211
sbag2
(g3
g4
Ntp3014
Rp3015
(dp3016
g8
F45.390243902439025
sg9
F5.2439024390243905
sg10
I2
sg11
F101533.25432072164
sbag2
(g3
g4
Ntp3017
Rp3018
(dp3019
g8
F45.390243902439025
sg9
F5.609756097560975
sg10
I2
sg11
F101502.89166212981
sbag2
(g3
g4
Ntp3020
Rp3021
(dp3022
g8
F45.390243902439025
sg9
F5.97560975609756
sg10
I2
sg11
F101478.55132366515
sbag2
(g3
g4
Ntp3023
Rp3024
(dp3025
g8
F45.390243902439025
sg9
F6.341463414634147
sg10
I2
sg11
F101463.41732586821
sbag2
(g3
g4
Ntp3026
Rp3027
(dp3028
g8
F45.390243902439025
sg9
F6.7073170731707314
sg10
I2
sg11
F101454.04298220051
sbag2
(g3
g4
Ntp3029
Rp3030
(dp3031
g8
F45.390243902439025
sg9
F7.073170731707316
sg10
I2
sg11
F101448.63115131255
sbag2
(g3
g4
Ntp3032
Rp3033
(dp3034
g8
F45.390243902439025
sg9
F7.439024390243903
sg10
I2
sg11
F101446.30046544278
sbag2
(g3
g4
Ntp3035
Rp3036
(dp3037
g8
F45.390243902439025
sg9
F7.804878048780488
sg10
I2
sg11
F101446.0777879956
sbag2
(g3
g4
Ntp3038
Rp3039
(dp3040
g8
F45.390243902439025
sg9
F8.170731707317072
sg10
I2
sg11
F101446.70389216683
sbag2
(g3
g4
Ntp3041
Rp3042
(dp3043
g8
F45.390243902439025
sg9
F8.536585365853659
sg10
I2
sg11
F101447.14959839749
sbag2
(g3
g4
Ntp3044
Rp3045
(dp3046
g8
F45.390243902439025
sg9
F8.902439024390244
sg10
I2
sg11
F101447.0014809521
sbag2
(g3
g4
Ntp3047
Rp3048
(dp3049
g8
F45.390243902439025
sg9
F9.268292682926829
sg10
I2
sg11
F101446.38839039113
sbag2
(g3
g4
Ntp3050
Rp3051
(dp3052
g8
F45.390243902439025
sg9
F9.634146341463413
sg10
I2
sg11
F101445.69370923929
sbag2
(g3
g4
Ntp3053
Rp3054
(dp3055
g8
F45.390243902439025
sg9
F10.0
sg10
I2
sg11
F101445.29775127853
sbaa(lp3056
g2
(g3
g4
Ntp3057
Rp3058
(dp3059
g8
F45.146341463414636
sg9
F-5.0
sg10
I2
sg11
F101517.91389223645
sbag2
(g3
g4
Ntp3060
Rp3061
(dp3062
g8
F45.146341463414636
sg9
F-4.634146341463414
sg10
I2
sg11
F101518.66410023007
sbag2
(g3
g4
Ntp3063
Rp3064
(dp3065
g8
F45.146341463414636
sg9
F-4.2682926829268295
sg10
I2
sg11
F101519.78993510593
sbag2
(g3
g4
Ntp3066
Rp3067
(dp3068
g8
F45.146341463414636
sg9
F-3.902439024390244
sg10
I2
sg11
F101521.40443962601
sbag2
(g3
g4
Ntp3069
Rp3070
(dp3071
g8
F45.146341463414636
sg9
F-3.5365853658536586
sg10
I2
sg11
F101523.60596557287
sbag2
(g3
g4
Ntp3072
Rp3073
(dp3074
g8
F45.146341463414636
sg9
F-3.1707317073170733
sg10
I2
sg11
F101526.40214351512
sbag2
(g3
g4
Ntp3075
Rp3076
(dp3077
g8
F45.146341463414636
sg9
F-2.8048780487804876
sg10
I2
sg11
F101529.6190229823
sbag2
(g3
g4
Ntp3078
Rp3079
(dp3080
g8
F45.146341463414636
sg9
F-2.4390243902439024
sg10
I2
sg11
F101532.84481318865
sbag2
(g3
g4
Ntp3081
Rp3082
(dp3083
g8
F45.146341463414636
sg9
F-2.073170731707317
sg10
I2
sg11
F101535.36123168898
sbag2
(g3
g4
Ntp3084
Rp3085
(dp3086
g8
F45.146341463414636
sg9
F-1.707317073170732
sg10
I2
sg11
F101535.82780337552
sbag2
(g3
g4
Ntp3087
Rp3088
(dp3089
g8
F45.146341463414636
sg9
F-1.3414634146341466
sg10
I2
sg11
F101531.35133584504
sbag2
(g3
g4
Ntp3090
Rp3091
(dp3092
g8
F45.146341463414636
sg9
F-0.975609756097561
sg10
I2
sg11
F101518.0983377034
sbag2
(g3
g4
Ntp3093
Rp3094
(dp3095
g8
F45.146341463414636
sg9
F-0.6097560975609753
sg10
I2
sg11
F101512.05965875991
sbag2
(g3
g4
Ntp3096
Rp3097
(dp3098
g8
F45.146341463414636
sg9
F-0.24390243902439046
sg10
I2
sg11
F101533.8075534886
sbag2
(g3
g4
Ntp3099
Rp3100
(dp3101
g8
F45.146341463414636
sg9
F0.12195121951219523
sg10
I2
sg11
F101555.79644904392
sbag2
(g3
g4
Ntp3102
Rp3103
(dp3104
g8
F45.146341463414636
sg9
F0.48780487804878003
sg10
I2
sg11
F101573.55982492959
sbag2
(g3
g4
Ntp3105
Rp3106
(dp3107
g8
F45.146341463414636
sg9
F0.8536585365853657
sg10
I2
sg11
F101592.05995853123
sbag2
(g3
g4
Ntp3108
Rp3109
(dp3110
g8
F45.146341463414636
sg9
F1.2195121951219514
sg10
I2
sg11
F101611.64469004543
sbag2
(g3
g4
Ntp3111
Rp3112
(dp3113
g8
F45.146341463414636
sg9
F1.5853658536585362
sg10
I2
sg11
F101610.69545501315
sbag2
(g3
g4
Ntp3114
Rp3115
(dp3116
g8
F45.146341463414636
sg9
F1.951219512195122
sg10
I2
sg11
F101588.0718151956
sbag2
(g3
g4
Ntp3117
Rp3118
(dp3119
g8
F45.146341463414636
sg9
F2.3170731707317067
sg10
I2
sg11
F101570.61066905584
sbag2
(g3
g4
Ntp3120
Rp3121
(dp3122
g8
F45.146341463414636
sg9
F2.6829268292682924
sg10
I2
sg11
F101563.10156233991
sbag2
(g3
g4
Ntp3123
Rp3124
(dp3125
g8
F45.146341463414636
sg9
F3.048780487804878
sg10
I2
sg11
F101559.37840065265
sbag2
(g3
g4
Ntp3126
Rp3127
(dp3128
g8
F45.146341463414636
sg9
F3.414634146341463
sg10
I2
sg11
F101543.39727866327
sbag2
(g3
g4
Ntp3129
Rp3130
(dp3131
g8
F45.146341463414636
sg9
F3.7804878048780495
sg10
I2
sg11
F101514.26455001766
sbag2
(g3
g4
Ntp3132
Rp3133
(dp3134
g8
F45.146341463414636
sg9
F4.146341463414634
sg10
I2
sg11
F101486.08882968719
sbag2
(g3
g4
Ntp3135
Rp3136
(dp3137
g8
F45.146341463414636
sg9
F4.512195121951219
sg10
I2
sg11
F101469.35925815559
sbag2
(g3
g4
Ntp3138
Rp3139
(dp3140
g8
F45.146341463414636
sg9
F4.878048780487804
sg10
I2
sg11
F101474.67892113204
sbag2
(g3
g4
Ntp3141
Rp3142
(dp3143
g8
F45.146341463414636
sg9
F5.2439024390243905
sg10
I2
sg11
F101482.73658141257
sbag2
(g3
g4
Ntp3144
Rp3145
(dp3146
g8
F45.146341463414636
sg9
F5.609756097560975
sg10
I2
sg11
F101469.93570658575
sbag2
(g3
g4
Ntp3147
Rp3148
(dp3149
g8
F45.146341463414636
sg9
F5.97560975609756
sg10
I2
sg11
F101452.63407735403
sbag2
(g3
g4
Ntp3150
Rp3151
(dp3152
g8
F45.146341463414636
sg9
F6.341463414634147
sg10
I2
sg11
F101439.05369271776
sbag2
(g3
g4
Ntp3153
Rp3154
(dp3155
g8
F45.146341463414636
sg9
F6.7073170731707314
sg10
I2
sg11
F101429.49576358347
sbag2
(g3
g4
Ntp3156
Rp3157
(dp3158
g8
F45.146341463414636
sg9
F7.073170731707316
sg10
I2
sg11
F101423.67049070312
sbag2
(g3
g4
Ntp3159
Rp3160
(dp3161
g8
F45.146341463414636
sg9
F7.439024390243903
sg10
I2
sg11
F101421.7692798331
sbag2
(g3
g4
Ntp3162
Rp3163
(dp3164
g8
F45.146341463414636
sg9
F7.804878048780488
sg10
I2
sg11
F101423.13557868543
sbag2
(g3
g4
Ntp3165
Rp3166
(dp3167
g8
F45.146341463414636
sg9
F8.170731707317072
sg10
I2
sg11
F101425.96467325774
sbag2
(g3
g4
Ntp3168
Rp3169
(dp3170
g8
F45.146341463414636
sg9
F8.536585365853659
sg10
I2
sg11
F101428.55798729417
sbag2
(g3
g4
Ntp3171
Rp3172
(dp3173
g8
F45.146341463414636
sg9
F8.902439024390244
sg10
I2
sg11
F101430.19637741685
sbag2
(g3
g4
Ntp3174
Rp3175
(dp3176
g8
F45.146341463414636
sg9
F9.268292682926829
sg10
I2
sg11
F101431.03017683401
sbag2
(g3
g4
Ntp3177
Rp3178
(dp3179
g8
F45.146341463414636
sg9
F9.634146341463413
sg10
I2
sg11
F101431.59698340586
sbag2
(g3
g4
Ntp3180
Rp3181
(dp3182
g8
F45.146341463414636
sg9
F10.0
sg10
I2
sg11
F101432.41655690268
sbaa(lp3183
g2
(g3
g4
Ntp3184
Rp3185
(dp3186
g8
F44.90243902439025
sg9
F-5.0
sg10
I2
sg11
F101519.76630079538
sbag2
(g3
g4
Ntp3187
Rp3188
(dp3189
g8
F44.90243902439025
sg9
F-4.634146341463414
sg10
I2
sg11
F101520.73298245338
sbag2
(g3
g4
Ntp3190
Rp3191
(dp3192
g8
F44.90243902439025
sg9
F-4.2682926829268295
sg10
I2
sg11
F101522.0569961431
sbag2
(g3
g4
Ntp3193
Rp3194
(dp3195
g8
F44.90243902439025
sg9
F-3.902439024390244
sg10
I2
sg11
F101523.8122312113
sbag2
(g3
g4
Ntp3196
Rp3197
(dp3198
g8
F44.90243902439025
sg9
F-3.5365853658536586
sg10
I2
sg11
F101526.04215797716
sbag2
(g3
g4
Ntp3199
Rp3200
(dp3201
g8
F44.90243902439025
sg9
F-3.1707317073170733
sg10
I2
sg11
F101528.70584495562
sbag2
(g3
g4
Ntp3202
Rp3203
(dp3204
g8
F44.90243902439025
sg9
F-2.8048780487804876
sg10
I2
sg11
F101531.61385807075
sbag2
(g3
g4
Ntp3205
Rp3206
(dp3207
g8
F44.90243902439025
sg9
F-2.4390243902439024
sg10
I2
sg11
F101534.36399735276
sbag2
(g3
g4
Ntp3208
Rp3209
(dp3210
g8
F44.90243902439025
sg9
F-2.073170731707317
sg10
I2
sg11
F101536.21785106875
sbag2
(g3
g4
Ntp3211
Rp3212
(dp3213
g8
F44.90243902439025
sg9
F-1.707317073170732
sg10
I2
sg11
F101535.66963415121
sbag2
(g3
g4
Ntp3214
Rp3215
(dp3216
g8
F44.90243902439025
sg9
F-1.3414634146341466
sg10
I2
sg11
F101528.906986276
sbag2
(g3
g4
Ntp3217
Rp3218
(dp3219
g8
F44.90243902439025
sg9
F-0.975609756097561
sg10
I2
sg11
F101507.67274983306
sbag2
(g3
g4
Ntp3220
Rp3221
(dp3222
g8
F44.90243902439025
sg9
F-0.6097560975609753
sg10
I2
sg11
F101493.63312533897
sbag2
(g3
g4
Ntp3223
Rp3224
(dp3225
g8
F44.90243902439025
sg9
F-0.24390243902439046
sg10
I2
sg11
F101528.78934067424
sbag2
(g3
g4
Ntp3226
Rp3227
(dp3228
g8
F44.90243902439025
sg9
F0.12195121951219523
sg10
I2
sg11
F101556.29191641456
sbag2
(g3
g4
Ntp3229
Rp3230
(dp3231
g8
F44.90243902439025
sg9
F0.48780487804878003
sg10
I2
sg11
F101575.9080163221
sbag2
(g3
g4
Ntp3232
Rp3233
(dp3234
g8
F44.90243902439025
sg9
F0.8536585365853657
sg10
I2
sg11
F101599.70955469242
sbag2
(g3
g4
Ntp3235
Rp3236
(dp3237
g8
F44.90243902439025
sg9
F1.2195121951219514
sg10
I2
sg11
F101638.4816602472
sbag2
(g3
g4
Ntp3238
Rp3239
(dp3240
g8
F44.90243902439025
sg9
F1.5853658536585362
sg10
I2
sg11
F101636.84579747911
sbag2
(g3
g4
Ntp3241
Rp3242
(dp3243
g8
F44.90243902439025
sg9
F1.951219512195122
sg10
I2
sg11
F101594.08892991982
sbag2
(g3
g4
Ntp3244
Rp3245
(dp3246
g8
F44.90243902439025
sg9
F2.3170731707317067
sg10
I2
sg11
F101567.964143331
sbag2
(g3
g4
Ntp3247
Rp3248
(dp3249
g8
F44.90243902439025
sg9
F2.6829268292682924
sg10
I2
sg11
F101554.11513127427
sbag2
(g3
g4
Ntp3250
Rp3251
(dp3252
g8
F44.90243902439025
sg9
F3.048780487804878
sg10
I2
sg11
F101542.91253305085
sbag2
(g3
g4
Ntp3253
Rp3254
(dp3255
g8
F44.90243902439025
sg9
F3.414634146341463
sg10
I2
sg11
F101523.17333112967
sbag2
(g3
g4
Ntp3256
Rp3257
(dp3258
g8
F44.90243902439025
sg9
F3.7804878048780495
sg10
I2
sg11
F101493.41947332074
sbag2
(g3
g4
Ntp3259
Rp3260
(dp3261
g8
F44.90243902439025
sg9
F4.146341463414634
sg10
I2
sg11
F101461.21011346493
sbag2
(g3
g4
Ntp3262
Rp3263
(dp3264
g8
F44.90243902439025
sg9
F4.512195121951219
sg10
I2
sg11
F101432.054322655
sbag2
(g3
g4
Ntp3265
Rp3266
(dp3267
g8
F44.90243902439025
sg9
F4.878048780487804
sg10
I2
sg11
F101426.55815453477
sbag2
(g3
g4
Ntp3268
Rp3269
(dp3270
g8
F44.90243902439025
sg9
F5.2439024390243905
sg10
I2
sg11
F101438.92395542334
sbag2
(g3
g4
Ntp3271
Rp3272
(dp3273
g8
F44.90243902439025
sg9
F5.609756097560975
sg10
I2
sg11
F101434.93986307985
sbag2
(g3
g4
Ntp3274
Rp3275
(dp3276
g8
F44.90243902439025
sg9
F5.97560975609756
sg10
I2
sg11
F101422.99053956206
sbag2
(g3
g4
Ntp3277
Rp3278
(dp3279
g8
F44.90243902439025
sg9
F6.341463414634147
sg10
I2
sg11
F101411.53449591015
sbag2
(g3
g4
Ntp3280
Rp3281
(dp3282
g8
F44.90243902439025
sg9
F6.7073170731707314
sg10
I2
sg11
F101402.2199942108
sbag2
(g3
g4
Ntp3283
Rp3284
(dp3285
g8
F44.90243902439025
sg9
F7.073170731707316
sg10
I2
sg11
F101396.12942665233
sbag2
(g3
g4
Ntp3286
Rp3287
(dp3288
g8
F44.90243902439025
sg9
F7.439024390243903
sg10
I2
sg11
F101395.1975539304
sbag2
(g3
g4
Ntp3289
Rp3290
(dp3291
g8
F44.90243902439025
sg9
F7.804878048780488
sg10
I2
sg11
F101399.1385989032
sbag2
(g3
g4
Ntp3292
Rp3293
(dp3294
g8
F44.90243902439025
sg9
F8.170731707317072
sg10
I2
sg11
F101404.97497278187
sbag2
(g3
g4
Ntp3295
Rp3296
(dp3297
g8
F44.90243902439025
sg9
F8.536585365853659
sg10
I2
sg11
F101410.01884115196
sbag2
(g3
g4
Ntp3298
Rp3299
(dp3300
g8
F44.90243902439025
sg9
F8.902439024390244
sg10
I2
sg11
F101413.36477252639
sbag2
(g3
g4
Ntp3301
Rp3302
(dp3303
g8
F44.90243902439025
sg9
F9.268292682926829
sg10
I2
sg11
F101415.41912480973
sbag2
(g3
g4
Ntp3304
Rp3305
(dp3306
g8
F44.90243902439025
sg9
F9.634146341463413
sg10
I2
sg11
F101417.04977044095
sbag2
(g3
g4
Ntp3307
Rp3308
(dp3309
g8
F44.90243902439025
sg9
F10.0
sg10
I2
sg11
F101418.99602264792
sbaa(lp3310
g2
(g3
g4
Ntp3311
Rp3312
(dp3313
g8
F44.65853658536585
sg9
F-5.0
sg10
I2
sg11
F101521.412254249
sbag2
(g3
g4
Ntp3314
Rp3315
(dp3316
g8
F44.65853658536585
sg9
F-4.634146341463414
sg10
I2
sg11
F101522.54795842497
sbag2
(g3
g4
Ntp3317
Rp3318
(dp3319
g8
F44.65853658536585
sg9
F-4.2682926829268295
sg10
I2
sg11
F101524.01882343534
sbag2
(g3
g4
Ntp3320
Rp3321
(dp3322
g8
F44.65853658536585
sg9
F-3.902439024390244
sg10
I2
sg11
F101525.8727281134
sbag2
(g3
g4
Ntp3323
Rp3324
(dp3325
g8
F44.65853658536585
sg9
F-3.5365853658536586
sg10
I2
sg11
F101528.12400795199
sbag2
(g3
g4
Ntp3326
Rp3327
(dp3328
g8
F44.65853658536585
sg9
F-3.1707317073170733
sg10
I2
sg11
F101530.71543243257
sbag2
(g3
g4
Ntp3329
Rp3330
(dp3331
g8
F44.65853658536585
sg9
F-2.8048780487804876
sg10
I2
sg11
F101533.47232489167
sbag2
(g3
g4
Ntp3332
Rp3333
(dp3334
g8
F44.65853658536585
sg9
F-2.4390243902439024
sg10
I2
sg11
F101536.04525127985
sbag2
(g3
g4
Ntp3335
Rp3336
(dp3337
g8
F44.65853658536585
sg9
F-2.073170731707317
sg10
I2
sg11
F101537.78698920838
sbag2
(g3
g4
Ntp3338
Rp3339
(dp3340
g8
F44.65853658536585
sg9
F-1.707317073170732
sg10
I2
sg11
F101537.35698523815
sbag2
(g3
g4
Ntp3341
Rp3342
(dp3343
g8
F44.65853658536585
sg9
F-1.3414634146341466
sg10
I2
sg11
F101531.43757199774
sbag2
(g3
g4
Ntp3344
Rp3345
(dp3346
g8
F44.65853658536585
sg9
F-0.975609756097561
sg10
I2
sg11
F101513.15317692063
sbag2
(g3
g4
Ntp3347
Rp3348
(dp3349
g8
F44.65853658536585
sg9
F-0.6097560975609753
sg10
I2
sg11
F101501.8754227898
sbag2
(g3
g4
Ntp3350
Rp3351
(dp3352
g8
F44.65853658536585
sg9
F-0.24390243902439046
sg10
I2
sg11
F101535.0643609219
sbag2
(g3
g4
Ntp3353
Rp3354
(dp3355
g8
F44.65853658536585
sg9
F0.12195121951219523
sg10
I2
sg11
F101559.90892334674
sbag2
(g3
g4
Ntp3356
Rp3357
(dp3358
g8
F44.65853658536585
sg9
F0.48780487804878003
sg10
I2
sg11
F101578.50401392243
sbag2
(g3
g4
Ntp3359
Rp3360
(dp3361
g8
F44.65853658536585
sg9
F0.8536585365853657
sg10
I2
sg11
F101602.51750424127
sbag2
(g3
g4
Ntp3362
Rp3363
(dp3364
g8
F44.65853658536585
sg9
F1.2195121951219514
sg10
I2
sg11
F101644.41508327147
sbag2
(g3
g4
Ntp3365
Rp3366
(dp3367
g8
F44.65853658536585
sg9
F1.5853658536585362
sg10
I2
sg11
F101642.36532408342
sbag2
(g3
g4
Ntp3368
Rp3369
(dp3370
g8
F44.65853658536585
sg9
F1.951219512195122
sg10
I2
sg11
F101594.17547296519
sbag2
(g3
g4
Ntp3371
Rp3372
(dp3373
g8
F44.65853658536585
sg9
F2.3170731707317067
sg10
I2
sg11
F101564.67929766397
sbag2
(g3
g4
Ntp3374
Rp3375
(dp3376
g8
F44.65853658536585
sg9
F2.6829268292682924
sg10
I2
sg11
F101550.088213554
sbag2
(g3
g4
Ntp3377
Rp3378
(dp3379
g8
F44.65853658536585
sg9
F3.048780487804878
sg10
I2
sg11
F101539.30910829757
sbag2
(g3
g4
Ntp3380
Rp3381
(dp3382
g8
F44.65853658536585
sg9
F3.414634146341463
sg10
I2
sg11
F101512.64359380647
sbag2
(g3
g4
Ntp3383
Rp3384
(dp3385
g8
F44.65853658536585
sg9
F3.7804878048780495
sg10
I2
sg11
F101474.8466573773
sbag2
(g3
g4
Ntp3386
Rp3387
(dp3388
g8
F44.65853658536585
sg9
F4.146341463414634
sg10
I2
sg11
F101439.55833659747
sbag2
(g3
g4
Ntp3389
Rp3390
(dp3391
g8
F44.65853658536585
sg9
F4.512195121951219
sg10
I2
sg11
F101408.85481044893
sbag2
(g3
g4
Ntp3392
Rp3393
(dp3394
g8
F44.65853658536585
sg9
F4.878048780487804
sg10
I2
sg11
F101403.14750934852
sbag2
(g3
g4
Ntp3395
Rp3396
(dp3397
g8
F44.65853658536585
sg9
F5.2439024390243905
sg10
I2
sg11
F101407.85535422163
sbag2
(g3
g4
Ntp3398
Rp3399
(dp3400
g8
F44.65853658536585
sg9
F5.609756097560975
sg10
I2
sg11
F101400.42291422171
sbag2
(g3
g4
Ntp3401
Rp3402
(dp3403
g8
F44.65853658536585
sg9
F5.97560975609756
sg10
I2
sg11
F101390.45831597113
sbag2
(g3
g4
Ntp3404
Rp3405
(dp3406
g8
F44.65853658536585
sg9
F6.341463414634147
sg10
I2
sg11
F101381.27407647725
sbag2
(g3
g4
Ntp3407
Rp3408
(dp3409
g8
F44.65853658536585
sg9
F6.7073170731707314
sg10
I2
sg11
F101372.38329743738
sbag2
(g3
g4
Ntp3410
Rp3411
(dp3412
g8
F44.65853658536585
sg9
F7.073170731707316
sg10
I2
sg11
F101365.65750437336
sbag2
(g3
g4
Ntp3413
Rp3414
(dp3415
g8
F44.65853658536585
sg9
F7.439024390243903
sg10
I2
sg11
F101366.19224010277
sbag2
(g3
g4
Ntp3416
Rp3417
(dp3418
g8
F44.65853658536585
sg9
F7.804878048780488
sg10
I2
sg11
F101374.14971335688
sbag2
(g3
g4
Ntp3419
Rp3420
(dp3421
g8
F44.65853658536585
sg9
F8.170731707317072
sg10
I2
sg11
F101384.06535622936
sbag2
(g3
g4
Ntp3422
Rp3423
(dp3424
g8
F44.65853658536585
sg9
F8.536585365853659
sg10
I2
sg11
F101391.83605901919
sbag2
(g3
g4
Ntp3425
Rp3426
(dp3427
g8
F44.65853658536585
sg9
F8.902439024390244
sg10
I2
sg11
F101396.66825543105
sbag2
(g3
g4
Ntp3428
Rp3429
(dp3430
g8
F44.65853658536585
sg9
F9.268292682926829
sg10
I2
sg11
F101399.58073261475
sbag2
(g3
g4
Ntp3431
Rp3432
(dp3433
g8
F44.65853658536585
sg9
F9.634146341463413
sg10
I2
sg11
F101402.00063490833
sbag2
(g3
g4
Ntp3434
Rp3435
(dp3436
g8
F44.65853658536585
sg9
F10.0
sg10
I2
sg11
F101404.97436814642
sbaa(lp3437
g2
(g3
g4
Ntp3438
Rp3439
(dp3440
g8
F44.41463414634146
sg9
F-5.0
sg10
I2
sg11
F101522.86273716783
sbag2
(g3
g4
Ntp3441
Rp3442
(dp3443
g8
F44.41463414634146
sg9
F-4.634146341463414
sg10
I2
sg11
F101524.13057225806
sbag2
(g3
g4
Ntp3444
Rp3445
(dp3446
g8
F44.41463414634146
sg9
F-4.2682926829268295
sg10
I2
sg11
F101525.7130615053
sbag2
(g3
g4
Ntp3447
Rp3448
(dp3449
g8
F44.41463414634146
sg9
F-3.902439024390244
sg10
I2
sg11
F101527.64313932905
sbag2
(g3
g4
Ntp3450
Rp3451
(dp3452
g8
F44.41463414634146
sg9
F-3.5365853658536586
sg10
I2
sg11
F101529.92397746755
sbag2
(g3
g4
Ntp3453
Rp3454
(dp3455
g8
F44.41463414634146
sg9
F-3.1707317073170733
sg10
I2
sg11
F101532.50368777476
sbag2
(g3
g4
Ntp3456
Rp3457
(dp3458
g8
F44.41463414634146
sg9
F-2.8048780487804876
sg10
I2
sg11
F101535.2456529652
sbag2
(g3
g4
Ntp3459
Rp3460
(dp3461
g8
F44.41463414634146
sg9
F-2.4390243902439024
sg10
I2
sg11
F101537.89059668283
sbag2
(g3
g4
Ntp3462
Rp3463
(dp3464
g8
F44.41463414634146
sg9
F-2.073170731707317
sg10
I2
sg11
F101539.98103723575
sbag2
(g3
g4
Ntp3465
Rp3466
(dp3467
g8
F44.41463414634146
sg9
F-1.707317073170732
sg10
I2
sg11
F101540.67327422215
sbag2
(g3
g4
Ntp3468
Rp3469
(dp3470
g8
F44.41463414634146
sg9
F-1.3414634146341466
sg10
I2
sg11
F101538.45419466108
sbag2
(g3
g4
Ntp3471
Rp3472
(dp3473
g8
F44.41463414634146
sg9
F-0.975609756097561
sg10
I2
sg11
F101532.6382054606
sbag2
(g3
g4
Ntp3474
Rp3475
(dp3476
g8
F44.41463414634146
sg9
F-0.6097560975609753
sg10
I2
sg11
F101535.00973930868
sbag2
(g3
g4
Ntp3477
Rp3478
(dp3479
g8
F44.41463414634146
sg9
F-0.24390243902439046
sg10
I2
sg11
F101551.21024168242
sbag2
(g3
g4
Ntp3480
Rp3481
(dp3482
g8
F44.41463414634146
sg9
F0.12195121951219523
sg10
I2
sg11
F101566.45306863045
sbag2
(g3
g4
Ntp3483
Rp3484
(dp3485
g8
F44.41463414634146
sg9
F0.48780487804878003
sg10
I2
sg11
F101581.37918778892
sbag2
(g3
g4
Ntp3486
Rp3487
(dp3488
g8
F44.41463414634146
sg9
F0.8536585365853657
sg10
I2
sg11
F101599.45392585619
sbag2
(g3
g4
Ntp3489
Rp3490
(dp3491
g8
F44.41463414634146
sg9
F1.2195121951219514
sg10
I2
sg11
F101622.029372231
sbag2
(g3
g4
Ntp3492
Rp3493
(dp3494
g8
F44.41463414634146
sg9
F1.5853658536585362
sg10
I2
sg11
F101619.02867924942
sbag2
(g3
g4
Ntp3495
Rp3496
(dp3497
g8
F44.41463414634146
sg9
F1.951219512195122
sg10
I2
sg11
F101587.17352423495
sbag2
(g3
g4
Ntp3498
Rp3499
(dp3500
g8
F44.41463414634146
sg9
F2.3170731707317067
sg10
I2
sg11
F101560.57991118061
sbag2
(g3
g4
Ntp3501
Rp3502
(dp3503
g8
F44.41463414634146
sg9
F2.6829268292682924
sg10
I2
sg11
F101552.11022621882
sbag2
(g3
g4
Ntp3504
Rp3505
(dp3506
g8
F44.41463414634146
sg9
F3.048780487804878
sg10
I2
sg11
F101553.85845075126
sbag2
(g3
g4
Ntp3507
Rp3508
(dp3509
g8
F44.41463414634146
sg9
F3.414634146341463
sg10
I2
sg11
F101511.54039435291
sbag2
(g3
g4
Ntp3510
Rp3511
(dp3512
g8
F44.41463414634146
sg9
F3.7804878048780495
sg10
I2
sg11
F101455.34212715345
sbag2
(g3
g4
Ntp3513
Rp3514
(dp3515
g8
F44.41463414634146
sg9
F4.146341463414634
sg10
I2
sg11
F101419.6419281011
sbag2
(g3
g4
Ntp3516
Rp3517
(dp3518
g8
F44.41463414634146
sg9
F4.512195121951219
sg10
I2
sg11
F101401.9309688807
sbag2
(g3
g4
Ntp3519
Rp3520
(dp3521
g8
F44.41463414634146
sg9
F4.878048780487804
sg10
I2
sg11
F101396.97689361118
sbag2
(g3
g4
Ntp3522
Rp3523
(dp3524
g8
F44.41463414634146
sg9
F5.2439024390243905
sg10
I2
sg11
F101378.86334150204
sbag2
(g3
g4
Ntp3525
Rp3526
(dp3527
g8
F44.41463414634146
sg9
F5.609756097560975
sg10
I2
sg11
F101362.63529376233
sbag2
(g3
g4
Ntp3528
Rp3529
(dp3530
g8
F44.41463414634146
sg9
F5.97560975609756
sg10
I2
sg11
F101354.44020308914
sbag2
(g3
g4
Ntp3531
Rp3532
(dp3533
g8
F44.41463414634146
sg9
F6.341463414634147
sg10
I2
sg11
F101348.83395155646
sbag2
(g3
g4
Ntp3534
Rp3535
(dp3536
g8
F44.41463414634146
sg9
F6.7073170731707314
sg10
I2
sg11
F101340.85617952506
sbag2
(g3
g4
Ntp3537
Rp3538
(dp3539
g8
F44.41463414634146
sg9
F7.073170731707316
sg10
I2
sg11
F101332.33628968478
sbag2
(g3
g4
Ntp3540
Rp3541
(dp3542
g8
F44.41463414634146
sg9
F7.439024390243903
sg10
I2
sg11
F101334.74582074446
sbag2
(g3
g4
Ntp3543
Rp3544
(dp3545
g8
F44.41463414634146
sg9
F7.804878048780488
sg10
I2
sg11
F101348.77551767613
sbag2
(g3
g4
Ntp3546
Rp3547
(dp3548
g8
F44.41463414634146
sg9
F8.170731707317072
sg10
I2
sg11
F101363.93911841414
sbag2
(g3
g4
Ntp3549
Rp3550
(dp3551
g8
F44.41463414634146
sg9
F8.536585365853659
sg10
I2
sg11
F101374.45492879627
sbag2
(g3
g4
Ntp3552
Rp3553
(dp3554
g8
F44.41463414634146
sg9
F8.902439024390244
sg10
I2
sg11
F101380.26882526392
sbag2
(g3
g4
Ntp3555
Rp3556
(dp3557
g8
F44.41463414634146
sg9
F9.268292682926829
sg10
I2
sg11
F101383.47770856757
sbag2
(g3
g4
Ntp3558
Rp3559
(dp3560
g8
F44.41463414634146
sg9
F9.634146341463413
sg10
I2
sg11
F101386.32649257405
sbag2
(g3
g4
Ntp3561
Rp3562
(dp3563
g8
F44.41463414634146
sg9
F10.0
sg10
I2
sg11
F101390.24416560137
sbaa(lp3564
g2
(g3
g4
Ntp3565
Rp3566
(dp3567
g8
F44.170731707317074
sg9
F-5.0
sg10
I2
sg11
F101524.12939497194
sbag2
(g3
g4
Ntp3568
Rp3569
(dp3570
g8
F44.170731707317074
sg9
F-4.634146341463414
sg10
I2
sg11
F101525.50047697694
sbag2
(g3
g4
Ntp3571
Rp3572
(dp3573
g8
F44.170731707317074
sg9
F-4.2682926829268295
sg10
I2
sg11
F101527.16965638737
sbag2
(g3
g4
Ntp3574
Rp3575
(dp3576
g8
F44.170731707317074
sg9
F-3.902439024390244
sg10
I2
sg11
F101529.16329017248
sbag2
(g3
g4
Ntp3577
Rp3578
(dp3579
g8
F44.170731707317074
sg9
F-3.5365853658536586
sg10
I2
sg11
F101531.48527885169
sbag2
(g3
g4
Ntp3580
Rp3581
(dp3582
g8
F44.170731707317074
sg9
F-3.1707317073170733
sg10
I2
sg11
F101534.10245208297
sbag2
(g3
g4
Ntp3583
Rp3584
(dp3585
g8
F44.170731707317074
sg9
F-2.8048780487804876
sg10
I2
sg11
F101536.93013929318
sbag2
(g3
g4
Ntp3586
Rp3587
(dp3588
g8
F44.170731707317074
sg9
F-2.4390243902439024
sg10
I2
sg11
F101539.81916651604
sbag2
(g3
g4
Ntp3589
Rp3590
(dp3591
g8
F44.170731707317074
sg9
F-2.073170731707317
sg10
I2
sg11
F101542.5439220851
sbag2
(g3
g4
Ntp3592
Rp3593
(dp3594
g8
F44.170731707317074
sg9
F-1.707317073170732
sg10
I2
sg11
F101544.82984748537
sbag2
(g3
g4
Ntp3595
Rp3596
(dp3597
g8
F44.170731707317074
sg9
F-1.3414634146341466
sg10
I2
sg11
F101546.77100081675
sbag2
(g3
g4
Ntp3598
Rp3599
(dp3600
g8
F44.170731707317074
sg9
F-0.975609756097561
sg10
I2
sg11
F101551.05690309982
sbag2
(g3
g4
Ntp3601
Rp3602
(dp3603
g8
F44.170731707317074
sg9
F-0.6097560975609753
sg10
I2
sg11
F101561.80148375794
sbag2
(g3
g4
Ntp3604
Rp3605
(dp3606
g8
F44.170731707317074
sg9
F-0.24390243902439046
sg10
I2
sg11
F101565.82996204475
sbag2
(g3
g4
Ntp3607
Rp3608
(dp3609
g8
F44.170731707317074
sg9
F0.12195121951219523
sg10
I2
sg11
F101574.62003515071
sbag2
(g3
g4
Ntp3610
Rp3611
(dp3612
g8
F44.170731707317074
sg9
F0.48780487804878003
sg10
I2
sg11
F101585.71120424823
sbag2
(g3
g4
Ntp3613
Rp3614
(dp3615
g8
F44.170731707317074
sg9
F0.8536585365853657
sg10
I2
sg11
F101598.18311044243
sbag2
(g3
g4
Ntp3616
Rp3617
(dp3618
g8
F44.170731707317074
sg9
F1.2195121951219514
sg10
I2
sg11
F101608.92139930691
sbag2
(g3
g4
Ntp3619
Rp3620
(dp3621
g8
F44.170731707317074
sg9
F1.5853658536585362
sg10
I2
sg11
F101604.15183736279
sbag2
(g3
g4
Ntp3622
Rp3623
(dp3624
g8
F44.170731707317074
sg9
F1.951219512195122
sg10
I2
sg11
F101580.66765475113
sbag2
(g3
g4
Ntp3625
Rp3626
(dp3627
g8
F44.170731707317074
sg9
F2.3170731707317067
sg10
I2
sg11
F101555.9012372686
sbag2
(g3
g4
Ntp3628
Rp3629
(dp3630
g8
F44.170731707317074
sg9
F2.6829268292682924
sg10
I2
sg11
F101555.40691046543
sbag2
(g3
g4
Ntp3631
Rp3632
(dp3633
g8
F44.170731707317074
sg9
F3.048780487804878
sg10
I2
sg11
F101578.18675751454
sbag2
(g3
g4
Ntp3634
Rp3635
(dp3636
g8
F44.170731707317074
sg9
F3.414634146341463
sg10
I2
sg11
F101509.30004700531
sbag2
(g3
g4
Ntp3637
Rp3638
(dp3639
g8
F44.170731707317074
sg9
F3.7804878048780495
sg10
I2
sg11
F101424.6472681102
sbag2
(g3
g4
Ntp3640
Rp3641
(dp3642
g8
F44.170731707317074
sg9
F4.146341463414634
sg10
I2
sg11
F101390.27139652711
sbag2
(g3
g4
Ntp3643
Rp3644
(dp3645
g8
F44.170731707317074
sg9
F4.512195121951219
sg10
I2
sg11
F101382.48339494427
sbag2
(g3
g4
Ntp3646
Rp3647
(dp3648
g8
F44.170731707317074
sg9
F4.878048780487804
sg10
I2
sg11
F101366.27289102129
sbag2
(g3
g4
Ntp3649
Rp3650
(dp3651
g8
F44.170731707317074
sg9
F5.2439024390243905
sg10
I2
sg11
F101331.84346363386
sbag2
(g3
g4
Ntp3652
Rp3653
(dp3654
g8
F44.170731707317074
sg9
F5.609756097560975
sg10
I2
sg11
F101315.49361992984
sbag2
(g3
g4
Ntp3655
Rp3656
(dp3657
g8
F44.170731707317074
sg9
F5.97560975609756
sg10
I2
sg11
F101313.63965774409
sbag2
(g3
g4
Ntp3658
Rp3659
(dp3660
g8
F44.170731707317074
sg9
F6.341463414634147
sg10
I2
sg11
F101314.92837638252
sbag2
(g3
g4
Ntp3661
Rp3662
(dp3663
g8
F44.170731707317074
sg9
F6.7073170731707314
sg10
I2
sg11
F101309.92050714915
sbag2
(g3
g4
Ntp3664
Rp3665
(dp3666
g8
F44.170731707317074
sg9
F7.073170731707316
sg10
I2
sg11
F101297.74212269452
sbag2
(g3
g4
Ntp3667
Rp3668
(dp3669
g8
F44.170731707317074
sg9
F7.439024390243903
sg10
I2
sg11
F101302.25032742979
sbag2
(g3
g4
Ntp3670
Rp3671
(dp3672
g8
F44.170731707317074
sg9
F7.804878048780488
sg10
I2
sg11
F101324.7064857137
sbag2
(g3
g4
Ntp3673
Rp3674
(dp3675
g8
F44.170731707317074
sg9
F8.170731707317072
sg10
I2
sg11
F101345.73577889774
sbag2
(g3
g4
Ntp3676
Rp3677
(dp3678
g8
F44.170731707317074
sg9
F8.536585365853659
sg10
I2
sg11
F101358.38902878933
sbag2
(g3
g4
Ntp3679
Rp3680
(dp3681
g8
F44.170731707317074
sg9
F8.902439024390244
sg10
I2
sg11
F101364.26131332318
sbag2
(g3
g4
Ntp3682
Rp3683
(dp3684
g8
F44.170731707317074
sg9
F9.268292682926829
sg10
I2
sg11
F101366.96637980435
sbag2
(g3
g4
Ntp3685
Rp3686
(dp3687
g8
F44.170731707317074
sg9
F9.634146341463413
sg10
I2
sg11
F101369.81315909972
sbag2
(g3
g4
Ntp3688
Rp3689
(dp3690
g8
F44.170731707317074
sg9
F10.0
sg10
I2
sg11
F101374.65828720976
sbaa(lp3691
g2
(g3
g4
Ntp3692
Rp3693
(dp3694
g8
F43.926829268292686
sg9
F-5.0
sg10
I2
sg11
F101525.2233543699
sbag2
(g3
g4
Ntp3695
Rp3696
(dp3697
g8
F43.926829268292686
sg9
F-4.634146341463414
sg10
I2
sg11
F101526.6743407047
sbag2
(g3
g4
Ntp3698
Rp3699
(dp3700
g8
F43.926829268292686
sg9
F-4.2682926829268295
sg10
I2
sg11
F101528.41107298827
sbag2
(g3
g4
Ntp3701
Rp3702
(dp3703
g8
F43.926829268292686
sg9
F-3.902439024390244
sg10
I2
sg11
F101530.4590103832
sbag2
(g3
g4
Ntp3704
Rp3705
(dp3706
g8
F43.926829268292686
sg9
F-3.5365853658536586
sg10
I2
sg11
F101532.82975541912
sbag2
(g3
g4
Ntp3707
Rp3708
(dp3709
g8
F43.926829268292686
sg9
F-3.1707317073170733
sg10
I2
sg11
F101535.51525312106
sbag2
(g3
g4
Ntp3710
Rp3711
(dp3712
g8
F43.926829268292686
sg9
F-2.8048780487804876
sg10
I2
sg11
F101538.4864668853
sbag2
(g3
g4
Ntp3713
Rp3714
(dp3715
g8
F43.926829268292686
sg9
F-2.4390243902439024
sg10
I2
sg11
F101541.70249438197
sbag2
(g3
g4
Ntp3716
Rp3717
(dp3718
g8
F43.926829268292686
sg9
F-2.073170731707317
sg10
I2
sg11
F101545.1454223859
sbag2
(g3
g4
Ntp3719
Rp3720
(dp3721
g8
F43.926829268292686
sg9
F-1.707317073170732
sg10
I2
sg11
F101548.94353236865
sbag2
(g3
g4
Ntp3722
Rp3723
(dp3724
g8
F43.926829268292686
sg9
F-1.3414634146341466
sg10
I2
sg11
F101553.79324370733
sbag2
(g3
g4
Ntp3725
Rp3726
(dp3727
g8
F43.926829268292686
sg9
F-0.975609756097561
sg10
I2
sg11
F101561.57210618976
sbag2
(g3
g4
Ntp3728
Rp3729
(dp3730
g8
F43.926829268292686
sg9
F-0.6097560975609753
sg10
I2
sg11
F101569.66057926587
sbag2
(g3
g4
Ntp3731
Rp3732
(dp3733
g8
F43.926829268292686
sg9
F-0.24390243902439046
sg10
I2
sg11
F101572.81689583608
sbag2
(g3
g4
Ntp3734
Rp3735
(dp3736
g8
F43.926829268292686
sg9
F0.12195121951219523
sg10
I2
sg11
F101585.10743532605
sbag2
(g3
g4
Ntp3737
Rp3738
(dp3739
g8
F43.926829268292686
sg9
F0.48780487804878003
sg10
I2
sg11
F101592.52749890232
sbag2
(g3
g4
Ntp3740
Rp3741
(dp3742
g8
F43.926829268292686
sg9
F0.8536585365853657
sg10
I2
sg11
F101602.40521245277
sbag2
(g3
g4
Ntp3743
Rp3744
(dp3745
g8
F43.926829268292686
sg9
F1.2195121951219514
sg10
I2
sg11
F101616.78626676684
sbag2
(g3
g4
Ntp3746
Rp3747
(dp3748
g8
F43.926829268292686
sg9
F1.5853658536585362
sg10
I2
sg11
F101610.79721268985
sbag2
(g3
g4
Ntp3749
Rp3750
(dp3751
g8
F43.926829268292686
sg9
F1.951219512195122
sg10
I2
sg11
F101579.11587561555
sbag2
(g3
g4
Ntp3752
Rp3753
(dp3754
g8
F43.926829268292686
sg9
F2.3170731707317067
sg10
I2
sg11
F101549.71245541298
sbag2
(g3
g4
Ntp3755
Rp3756
(dp3757
g8
F43.926829268292686
sg9
F2.6829268292682924
sg10
I2
sg11
F101545.5133460416
sbag2
(g3
g4
Ntp3758
Rp3759
(dp3760
g8
F43.926829268292686
sg9
F3.048780487804878
sg10
I2
sg11
F101560.13191291441
sbag2
(g3
g4
Ntp3761
Rp3762
(dp3763
g8
F43.926829268292686
sg9
F3.414634146341463
sg10
I2
sg11
F101480.80769814609
sbag2
(g3
g4
Ntp3764
Rp3765
(dp3766
g8
F43.926829268292686
sg9
F3.7804878048780495
sg10
I2
sg11
F101369.31098609192
sbag2
(g3
g4
Ntp3767
Rp3768
(dp3769
g8
F43.926829268292686
sg9
F4.146341463414634
sg10
I2
sg11
F101343.05984418555
sbag2
(g3
g4
Ntp3770
Rp3771
(dp3772
g8
F43.926829268292686
sg9
F4.512195121951219
sg10
I2
sg11
F101347.75144984496
sbag2
(g3
g4
Ntp3773
Rp3774
(dp3775
g8
F43.926829268292686
sg9
F4.878048780487804
sg10
I2
sg11
F101306.55468678923
sbag2
(g3
g4
Ntp3776
Rp3777
(dp3778
g8
F43.926829268292686
sg9
F5.2439024390243905
sg10
I2
sg11
F101256.49503988297
sbag2
(g3
g4
Ntp3779
Rp3780
(dp3781
g8
F43.926829268292686
sg9
F5.609756097560975
sg10
I2
sg11
F101257.58434333703
sbag2
(g3
g4
Ntp3782
Rp3783
(dp3784
g8
F43.926829268292686
sg9
F5.97560975609756
sg10
I2
sg11
F101266.92845630813
sbag2
(g3
g4
Ntp3785
Rp3786
(dp3787
g8
F43.926829268292686
sg9
F6.341463414634147
sg10
I2
sg11
F101279.69682223332
sbag2
(g3
g4
Ntp3788
Rp3789
(dp3790
g8
F43.926829268292686
sg9
F6.7073170731707314
sg10
I2
sg11
F101283.75047275175
sbag2
(g3
g4
Ntp3791
Rp3792
(dp3793
g8
F43.926829268292686
sg9
F7.073170731707316
sg10
I2
sg11
F101267.67050525542
sbag2
(g3
g4
Ntp3794
Rp3795
(dp3796
g8
F43.926829268292686
sg9
F7.439024390243903
sg10
I2
sg11
F101273.93800543116
sbag2
(g3
g4
Ntp3797
Rp3798
(dp3799
g8
F43.926829268292686
sg9
F7.804878048780488
sg10
I2
sg11
F101305.23259723381
sbag2
(g3
g4
Ntp3800
Rp3801
(dp3802
g8
F43.926829268292686
sg9
F8.170731707317072
sg10
I2
sg11
F101330.83243985304
sbag2
(g3
g4
Ntp3803
Rp3804
(dp3805
g8
F43.926829268292686
sg9
F8.536585365853659
sg10
I2
sg11
F101344.03125404367
sbag2
(g3
g4
Ntp3806
Rp3807
(dp3808
g8
F43.926829268292686
sg9
F8.902439024390244
sg10
I2
sg11
F101348.58488580043
sbag2
(g3
g4
Ntp3809
Rp3810
(dp3811
g8
F43.926829268292686
sg9
F9.268292682926829
sg10
I2
sg11
F101349.76535878706
sbag2
(g3
g4
Ntp3812
Rp3813
(dp3814
g8
F43.926829268292686
sg9
F9.634146341463413
sg10
I2
sg11
F101352.15927309151
sbag2
(g3
g4
Ntp3815
Rp3816
(dp3817
g8
F43.926829268292686
sg9
F10.0
sg10
I2
sg11
F101358.06623409608
sbaa(lp3818
g2
(g3
g4
Ntp3819
Rp3820
(dp3821
g8
F43.6829268292683
sg9
F-5.0
sg10
I2
sg11
F101526.15468873379
sbag2
(g3
g4
Ntp3822
Rp3823
(dp3824
g8
F43.6829268292683
sg9
F-4.634146341463414
sg10
I2
sg11
F101527.66574592405
sbag2
(g3
g4
Ntp3825
Rp3826
(dp3827
g8
F43.6829268292683
sg9
F-4.2682926829268295
sg10
I2
sg11
F101529.45351872401
sbag2
(g3
g4
Ntp3828
Rp3829
(dp3830
g8
F43.6829268292683
sg9
F-3.902439024390244
sg10
I2
sg11
F101531.54585293207
sbag2
(g3
g4
Ntp3831
Rp3832
(dp3833
g8
F43.6829268292683
sg9
F-3.5365853658536586
sg10
I2
sg11
F101533.9650868176
sbag2
(g3
g4
Ntp3834
Rp3835
(dp3836
g8
F43.6829268292683
sg9
F-3.1707317073170733
sg10
I2
sg11
F101536.72900734791
sbag2
(g3
g4
Ntp3837
Rp3838
(dp3839
g8
F43.6829268292683
sg9
F-2.8048780487804876
sg10
I2
sg11
F101539.8591913786
sbag2
(g3
g4
Ntp3840
Rp3841
(dp3842
g8
F43.6829268292683
sg9
F-2.4390243902439024
sg10
I2
sg11
F101543.40443414066
sbag2
(g3
g4
Ntp3843
Rp3844
(dp3845
g8
F43.6829268292683
sg9
F-2.073170731707317
sg10
I2
sg11
F101547.49498277948
sbag2
(g3
g4
Ntp3846
Rp3847
(dp3848
g8
F43.6829268292683
sg9
F-1.707317073170732
sg10
I2
sg11
F101552.45714433615
sbag2
(g3
g4
Ntp3849
Rp3850
(dp3851
g8
F43.6829268292683
sg9
F-1.3414634146341466
sg10
I2
sg11
F101558.95001672642
sbag2
(g3
g4
Ntp3852
Rp3853
(dp3854
g8
F43.6829268292683
sg9
F-0.975609756097561
sg10
I2
sg11
F101567.2080759073
sbag2
(g3
g4
Ntp3855
Rp3856
(dp3857
g8
F43.6829268292683
sg9
F-0.6097560975609753
sg10
I2
sg11
F101572.83466988672
sbag2
(g3
g4
Ntp3858
Rp3859
(dp3860
g8
F43.6829268292683
sg9
F-0.24390243902439046
sg10
I2
sg11
F101585.44047144848
sbag2
(g3
g4
Ntp3861
Rp3862
(dp3863
g8
F43.6829268292683
sg9
F0.12195121951219523
sg10
I2
sg11
F101603.26914019563
sbag2
(g3
g4
Ntp3864
Rp3865
(dp3866
g8
F43.6829268292683
sg9
F0.48780487804878003
sg10
I2
sg11
F101601.95258228494
sbag2
(g3
g4
Ntp3867
Rp3868
(dp3869
g8
F43.6829268292683
sg9
F0.8536585365853657
sg10
I2
sg11
F101608.64336333518
sbag2
(g3
g4
Ntp3870
Rp3871
(dp3872
g8
F43.6829268292683
sg9
F1.2195121951219514
sg10
I2
sg11
F101631.61817844425
sbag2
(g3
g4
Ntp3873
Rp3874
(dp3875
g8
F43.6829268292683
sg9
F1.5853658536585362
sg10
I2
sg11
F101625.29717544156
sbag2
(g3
g4
Ntp3876
Rp3877
(dp3878
g8
F43.6829268292683
sg9
F1.951219512195122
sg10
I2
sg11
F101578.82482581632
sbag2
(g3
g4
Ntp3879
Rp3880
(dp3881
g8
F43.6829268292683
sg9
F2.3170731707317067
sg10
I2
sg11
F101540.42636656525
sbag2
(g3
g4
Ntp3882
Rp3883
(dp3884
g8
F43.6829268292683
sg9
F2.6829268292682924
sg10
I2
sg11
F101521.81070921148
sbag2
(g3
g4
Ntp3885
Rp3886
(dp3887
g8
F43.6829268292683
sg9
F3.048780487804878
sg10
I2
sg11
F101508.92595115157
sbag2
(g3
g4
Ntp3888
Rp3889
(dp3890
g8
F43.6829268292683
sg9
F3.414634146341463
sg10
I2
sg11
F101435.1737493701
sbag2
(g3
g4
Ntp3891
Rp3892
(dp3893
g8
F43.6829268292683
sg9
F3.7804878048780495
sg10
I2
sg11
F101307.12457184293
sbag2
(g3
g4
Ntp3894
Rp3895
(dp3896
g8
F43.6829268292683
sg9
F4.146341463414634
sg10
I2
sg11
F101296.2106429444
sbag2
(g3
g4
Ntp3897
Rp3898
(dp3899
g8
F43.6829268292683
sg9
F4.512195121951219
sg10
I2
sg11
F101317.07605260256
sbag2
(g3
g4
Ntp3900
Rp3901
(dp3902
g8
F43.6829268292683
sg9
F4.878048780487804
sg10
I2
sg11
F101238.1970151873
sbag2
(g3
g4
Ntp3903
Rp3904
(dp3905
g8
F43.6829268292683
sg9
F5.2439024390243905
sg10
I2
sg11
F101162.59672100446
sbag2
(g3
g4
Ntp3906
Rp3907
(dp3908
g8
F43.6829268292683
sg9
F5.609756097560975
sg10
I2
sg11
F101199.28078023593
sbag2
(g3
g4
Ntp3909
Rp3910
(dp3911
g8
F43.6829268292683
sg9
F5.97560975609756
sg10
I2
sg11
F101211.84366651978
sbag2
(g3
g4
Ntp3912
Rp3913
(dp3914
g8
F43.6829268292683
sg9
F6.341463414634147
sg10
I2
sg11
F101240.76974549553
sbag2
(g3
g4
Ntp3915
Rp3916
(dp3917
g8
F43.6829268292683
sg9
F6.7073170731707314
sg10
I2
sg11
F101265.73212655139
sbag2
(g3
g4
Ntp3918
Rp3919
(dp3920
g8
F43.6829268292683
sg9
F7.073170731707316
sg10
I2
sg11
F101253.37905495771
sbag2
(g3
g4
Ntp3921
Rp3922
(dp3923
g8
F43.6829268292683
sg9
F7.439024390243903
sg10
I2
sg11
F101259.88813636651
sbag2
(g3
g4
Ntp3924
Rp3925
(dp3926
g8
F43.6829268292683
sg9
F7.804878048780488
sg10
I2
sg11
F101294.23271414718
sbag2
(g3
g4
Ntp3927
Rp3928
(dp3929
g8
F43.6829268292683
sg9
F8.170731707317072
sg10
I2
sg11
F101320.14768269725
sbag2
(g3
g4
Ntp3930
Rp3931
(dp3932
g8
F43.6829268292683
sg9
F8.536585365853659
sg10
I2
sg11
F101331.39615257122
sbag2
(g3
g4
Ntp3933
Rp3934
(dp3935
g8
F43.6829268292683
sg9
F8.902439024390244
sg10
I2
sg11
F101332.98798940779
sbag2
(g3
g4
Ntp3936
Rp3937
(dp3938
g8
F43.6829268292683
sg9
F9.268292682926829
sg10
I2
sg11
F101331.49750395652
sbag2
(g3
g4
Ntp3939
Rp3940
(dp3941
g8
F43.6829268292683
sg9
F9.634146341463413
sg10
I2
sg11
F101333.04893332662
sbag2
(g3
g4
Ntp3942
Rp3943
(dp3944
g8
F43.6829268292683
sg9
F10.0
sg10
I2
sg11
F101340.41429409903
sbaa(lp3945
g2
(g3
g4
Ntp3946
Rp3947
(dp3948
g8
F43.4390243902439
sg9
F-5.0
sg10
I2
sg11
F101526.93232807629
sbag2
(g3
g4
Ntp3949
Rp3950
(dp3951
g8
F43.4390243902439
sg9
F-4.634146341463414
sg10
I2
sg11
F101528.48564817749
sbag2
(g3
g4
Ntp3952
Rp3953
(dp3954
g8
F43.4390243902439
sg9
F-4.2682926829268295
sg10
I2
sg11
F101530.30858029738
sbag2
(g3
g4
Ntp3955
Rp3956
(dp3957
g8
F43.4390243902439
sg9
F-3.902439024390244
sg10
I2
sg11
F101532.43267872324
sbag2
(g3
g4
Ntp3958
Rp3959
(dp3960
g8
F43.4390243902439
sg9
F-3.5365853658536586
sg10
I2
sg11
F101534.8910766149
sbag2
(g3
g4
Ntp3961
Rp3962
(dp3963
g8
F43.4390243902439
sg9
F-3.1707317073170733
sg10
I2
sg11
F101537.72403199325
sbag2
(g3
g4
Ntp3964
Rp3965
(dp3966
g8
F43.4390243902439
sg9
F-2.8048780487804876
sg10
I2
sg11
F101540.99305873958
sbag2
(g3
g4
Ntp3967
Rp3968
(dp3969
g8
F43.4390243902439
sg9
F-2.4390243902439024
sg10
I2
sg11
F101544.81063951224
sbag2
(g3
g4
Ntp3970
Rp3971
(dp3972
g8
F43.4390243902439
sg9
F-2.073170731707317
sg10
I2
sg11
F101549.39565722083
sbag2
(g3
g4
Ntp3973
Rp3974
(dp3975
g8
F43.4390243902439
sg9
F-1.707317073170732
sg10
I2
sg11
F101555.15593300549
sbag2
(g3
g4
Ntp3976
Rp3977
(dp3978
g8
F43.4390243902439
sg9
F-1.3414634146341466
sg10
I2
sg11
F101562.70019601779
sbag2
(g3
g4
Ntp3979
Rp3980
(dp3981
g8
F43.4390243902439
sg9
F-0.975609756097561
sg10
I2
sg11
F101572.36499863092
sbag2
(g3
g4
Ntp3982
Rp3983
(dp3984
g8
F43.4390243902439
sg9
F-0.6097560975609753
sg10
I2
sg11
F101585.16115174025
sbag2
(g3
g4
Ntp3985
Rp3986
(dp3987
g8
F43.4390243902439
sg9
F-0.24390243902439046
sg10
I2
sg11
F101617.0663173596
sbag2
(g3
g4
Ntp3988
Rp3989
(dp3990
g8
F43.4390243902439
sg9
F0.12195121951219523
sg10
I2
sg11
F101633.54699793665
sbag2
(g3
g4
Ntp3991
Rp3992
(dp3993
g8
F43.4390243902439
sg9
F0.48780487804878003
sg10
I2
sg11
F101612.462328525
sbag2
(g3
g4
Ntp3994
Rp3995
(dp3996
g8
F43.4390243902439
sg9
F0.8536585365853657
sg10
I2
sg11
F101614.0470539478
sbag2
(g3
g4
Ntp3997
Rp3998
(dp3999
g8
F43.4390243902439
sg9
F1.2195121951219514
sg10
I2
sg11
F101626.88605116704
sbag2
(g3
g4
Ntp4000
Rp4001
(dp4002
g8
F43.4390243902439
sg9
F1.5853658536585362
sg10
I2
sg11
F101618.84030851898
sbag2
(g3
g4
Ntp4003
Rp4004
(dp4005
g8
F43.4390243902439
sg9
F1.951219512195122
sg10
I2
sg11
F101572.83831681774
sbag2
(g3
g4
Ntp4006
Rp4007
(dp4008
g8
F43.4390243902439
sg9
F2.3170731707317067
sg10
I2
sg11
F101526.3610143461
sbag2
(g3
g4
Ntp4009
Rp4010
(dp4011
g8
F43.4390243902439
sg9
F2.6829268292682924
sg10
I2
sg11
F101493.10942553788
sbag2
(g3
g4
Ntp4012
Rp4013
(dp4014
g8
F43.4390243902439
sg9
F3.048780487804878
sg10
I2
sg11
F101468.11512994752
sbag2
(g3
g4
Ntp4015
Rp4016
(dp4017
g8
F43.4390243902439
sg9
F3.414634146341463
sg10
I2
sg11
F101410.51399849812
sbag2
(g3
g4
Ntp4018
Rp4019
(dp4020
g8
F43.4390243902439
sg9
F3.7804878048780495
sg10
I2
sg11
F101306.68503614396
sbag2
(g3
g4
Ntp4021
Rp4022
(dp4023
g8
F43.4390243902439
sg9
F4.146341463414634
sg10
I2
sg11
F101295.57361552145
sbag2
(g3
g4
Ntp4024
Rp4025
(dp4026
g8
F43.4390243902439
sg9
F4.512195121951219
sg10
I2
sg11
F101301.7788060148
sbag2
(g3
g4
Ntp4027
Rp4028
(dp4029
g8
F43.4390243902439
sg9
F4.878048780487804
sg10
I2
sg11
F101198.96604228363
sbag2
(g3
g4
Ntp4030
Rp4031
(dp4032
g8
F43.4390243902439
sg9
F5.2439024390243905
sg10
I2
sg11
F101110.73395584305
sbag2
(g3
g4
Ntp4033
Rp4034
(dp4035
g8
F43.4390243902439
sg9
F5.609756097560975
sg10
I2
sg11
F101158.82383192224
sbag2
(g3
g4
Ntp4036
Rp4037
(dp4038
g8
F43.4390243902439
sg9
F5.97560975609756
sg10
I2
sg11
F101140.19715958106
sbag2
(g3
g4
Ntp4039
Rp4040
(dp4041
g8
F43.4390243902439
sg9
F6.341463414634147
sg10
I2
sg11
F101194.89390001973
sbag2
(g3
g4
Ntp4042
Rp4043
(dp4044
g8
F43.4390243902439
sg9
F6.7073170731707314
sg10
I2
sg11
F101252.41039885434
sbag2
(g3
g4
Ntp4045
Rp4046
(dp4047
g8
F43.4390243902439
sg9
F7.073170731707316
sg10
I2
sg11
F101257.54338260365
sbag2
(g3
g4
Ntp4048
Rp4049
(dp4050
g8
F43.4390243902439
sg9
F7.439024390243903
sg10
I2
sg11
F101264.36702030212
sbag2
(g3
g4
Ntp4051
Rp4052
(dp4053
g8
F43.4390243902439
sg9
F7.804878048780488
sg10
I2
sg11
F101292.41413120952
sbag2
(g3
g4
Ntp4054
Rp4055
(dp4056
g8
F43.4390243902439
sg9
F8.170731707317072
sg10
I2
sg11
F101313.24710640825
sbag2
(g3
g4
Ntp4057
Rp4058
(dp4059
g8
F43.4390243902439
sg9
F8.536585365853659
sg10
I2
sg11
F101320.00348512531
sbag2
(g3
g4
Ntp4060
Rp4061
(dp4062
g8
F43.4390243902439
sg9
F8.902439024390244
sg10
I2
sg11
F101317.18750161034
sbag2
(g3
g4
Ntp4063
Rp4064
(dp4065
g8
F43.4390243902439
sg9
F9.268292682926829
sg10
I2
sg11
F101311.91500133555
sbag2
(g3
g4
Ntp4066
Rp4067
(dp4068
g8
F43.4390243902439
sg9
F9.634146341463413
sg10
I2
sg11
F101312.37459068274
sbag2
(g3
g4
Ntp4069
Rp4070
(dp4071
g8
F43.4390243902439
sg9
F10.0
sg10
I2
sg11
F101321.95897075358
sbaa(lp4072
g2
(g3
g4
Ntp4073
Rp4074
(dp4075
g8
F43.19512195121951
sg9
F-5.0
sg10
I2
sg11
F101527.56423606424
sbag2
(g3
g4
Ntp4076
Rp4077
(dp4078
g8
F43.19512195121951
sg9
F-4.634146341463414
sg10
I2
sg11
F101529.14308969011
sbag2
(g3
g4
Ntp4079
Rp4080
(dp4081
g8
F43.19512195121951
sg9
F-4.2682926829268295
sg10
I2
sg11
F101530.98490311051
sbag2
(g3
g4
Ntp4082
Rp4083
(dp4084
g8
F43.19512195121951
sg9
F-3.902439024390244
sg10
I2
sg11
F101533.1247938491
sbag2
(g3
g4
Ntp4085
Rp4086
(dp4087
g8
F43.19512195121951
sg9
F-3.5365853658536586
sg10
I2
sg11
F101535.60473047527
sbag2
(g3
g4
Ntp4088
Rp4089
(dp4090
g8
F43.19512195121951
sg9
F-3.1707317073170733
sg10
I2
sg11
F101538.48162509917
sbag2
(g3
g4
Ntp4091
Rp4092
(dp4093
g8
F43.19512195121951
sg9
F-2.8048780487804876
sg10
I2
sg11
F101541.84380406425
sbag2
(g3
g4
Ntp4094
Rp4095
(dp4096
g8
F43.19512195121951
sg9
F-2.4390243902439024
sg10
I2
sg11
F101545.84126470203
sbag2
(g3
g4
Ntp4097
Rp4098
(dp4099
g8
F43.19512195121951
sg9
F-2.073170731707317
sg10
I2
sg11
F101550.73583696116
sbag2
(g3
g4
Ntp4100
Rp4101
(dp4102
g8
F43.19512195121951
sg9
F-1.707317073170732
sg10
I2
sg11
F101556.97055687026
sbag2
(g3
g4
Ntp4103
Rp4104
(dp4105
g8
F43.19512195121951
sg9
F-1.3414634146341466
sg10
I2
sg11
F101565.24216836323
sbag2
(g3
g4
Ntp4106
Rp4107
(dp4108
g8
F43.19512195121951
sg9
F-0.975609756097561
sg10
I2
sg11
F101576.80963658223
sbag2
(g3
g4
Ntp4109
Rp4110
(dp4111
g8
F43.19512195121951
sg9
F-0.6097560975609753
sg10
I2
sg11
F101596.71065622842
sbag2
(g3
g4
Ntp4112
Rp4113
(dp4114
g8
F43.19512195121951
sg9
F-0.24390243902439046
sg10
I2
sg11
F101639.26618921313
sbag2
(g3
g4
Ntp4115
Rp4116
(dp4117
g8
F43.19512195121951
sg9
F0.12195121951219523
sg10
I2
sg11
F101654.2644681227
sbag2
(g3
g4
Ntp4118
Rp4119
(dp4120
g8
F43.19512195121951
sg9
F0.48780487804878003
sg10
I2
sg11
F101618.92516187984
sbag2
(g3
g4
Ntp4121
Rp4122
(dp4123
g8
F43.19512195121951
sg9
F0.8536585365853657
sg10
I2
sg11
F101622.4816870095
sbag2
(g3
g4
Ntp4124
Rp4125
(dp4126
g8
F43.19512195121951
sg9
F1.2195121951219514
sg10
I2
sg11
F101628.39076902051
sbag2
(g3
g4
Ntp4127
Rp4128
(dp4129
g8
F43.19512195121951
sg9
F1.5853658536585362
sg10
I2
sg11
F101604.49058253219
sbag2
(g3
g4
Ntp4130
Rp4131
(dp4132
g8
F43.19512195121951
sg9
F1.951219512195122
sg10
I2
sg11
F101561.0417261692
sbag2
(g3
g4
Ntp4133
Rp4134
(dp4135
g8
F43.19512195121951
sg9
F2.3170731707317067
sg10
I2
sg11
F101506.68264063977
sbag2
(g3
g4
Ntp4136
Rp4137
(dp4138
g8
F43.19512195121951
sg9
F2.6829268292682924
sg10
I2
sg11
F101458.6344049034
sbag2
(g3
g4
Ntp4139
Rp4140
(dp4141
g8
F43.19512195121951
sg9
F3.048780487804878
sg10
I2
sg11
F101437.5297605466
sbag2
(g3
g4
Ntp4142
Rp4143
(dp4144
g8
F43.19512195121951
sg9
F3.414634146341463
sg10
I2
sg11
F101407.86015986293
sbag2
(g3
g4
Ntp4145
Rp4146
(dp4147
g8
F43.19512195121951
sg9
F3.7804878048780495
sg10
I2
sg11
F101346.61436961262
sbag2
(g3
g4
Ntp4148
Rp4149
(dp4150
g8
F43.19512195121951
sg9
F4.146341463414634
sg10
I2
sg11
F101323.78882825421
sbag2
(g3
g4
Ntp4151
Rp4152
(dp4153
g8
F43.19512195121951
sg9
F4.512195121951219
sg10
I2
sg11
F101301.60101152201
sbag2
(g3
g4
Ntp4154
Rp4155
(dp4156
g8
F43.19512195121951
sg9
F4.878048780487804
sg10
I2
sg11
F101213.70171073273
sbag2
(g3
g4
Ntp4157
Rp4158
(dp4159
g8
F43.19512195121951
sg9
F5.2439024390243905
sg10
I2
sg11
F101147.67931142921
sbag2
(g3
g4
Ntp4160
Rp4161
(dp4162
g8
F43.19512195121951
sg9
F5.609756097560975
sg10
I2
sg11
F101132.02117640112
sbag2
(g3
g4
Ntp4163
Rp4164
(dp4165
g8
F43.19512195121951
sg9
F5.97560975609756
sg10
I2
sg11
F101063.80051333965
sbag2
(g3
g4
Ntp4166
Rp4167
(dp4168
g8
F43.19512195121951
sg9
F6.341463414634147
sg10
I2
sg11
F101154.15519660135
sbag2
(g3
g4
Ntp4169
Rp4170
(dp4171
g8
F43.19512195121951
sg9
F6.7073170731707314
sg10
I2
sg11
F101239.97823406811
sbag2
(g3
g4
Ntp4172
Rp4173
(dp4174
g8
F43.19512195121951
sg9
F7.073170731707316
sg10
I2
sg11
F101265.60514724602
sbag2
(g3
g4
Ntp4175
Rp4176
(dp4177
g8
F43.19512195121951
sg9
F7.439024390243903
sg10
I2
sg11
F101276.46645979113
sbag2
(g3
g4
Ntp4178
Rp4179
(dp4180
g8
F43.19512195121951
sg9
F7.804878048780488
sg10
I2
sg11
F101295.50366223967
sbag2
(g3
g4
Ntp4181
Rp4182
(dp4183
g8
F43.19512195121951
sg9
F8.170731707317072
sg10
I2
sg11
F101308.32095743982
sbag2
(g3
g4
Ntp4184
Rp4185
(dp4186
g8
F43.19512195121951
sg9
F8.536585365853659
sg10
I2
sg11
F101309.1308302481
sbag2
(g3
g4
Ntp4187
Rp4188
(dp4189
g8
F43.19512195121951
sg9
F8.902439024390244
sg10
I2
sg11
F101301.34100932517
sbag2
(g3
g4
Ntp4190
Rp4191
(dp4192
g8
F43.19512195121951
sg9
F9.268292682926829
sg10
I2
sg11
F101291.44871884774
sbag2
(g3
g4
Ntp4193
Rp4194
(dp4195
g8
F43.19512195121951
sg9
F9.634146341463413
sg10
I2
sg11
F101290.73512373374
sbag2
(g3
g4
Ntp4196
Rp4197
(dp4198
g8
F43.19512195121951
sg9
F10.0
sg10
I2
sg11
F101303.63559292769
sbaa(lp4199
g2
(g3
g4
Ntp4200
Rp4201
(dp4202
g8
F42.951219512195124
sg9
F-5.0
sg10
I2
sg11
F101528.05771461847
sbag2
(g3
g4
Ntp4203
Rp4204
(dp4205
g8
F42.951219512195124
sg9
F-4.634146341463414
sg10
I2
sg11
F101529.64596278606
sbag2
(g3
g4
Ntp4206
Rp4207
(dp4208
g8
F42.951219512195124
sg9
F-4.2682926829268295
sg10
I2
sg11
F101531.48968534959
sbag2
(g3
g4
Ntp4209
Rp4210
(dp4211
g8
F42.951219512195124
sg9
F-3.902439024390244
sg10
I2
sg11
F101533.62644824489
sbag2
(g3
g4
Ntp4212
Rp4213
(dp4214
g8
F42.951219512195124
sg9
F-3.5365853658536586
sg10
I2
sg11
F101536.10395732294
sbag2
(g3
g4
Ntp4215
Rp4216
(dp4217
g8
F42.951219512195124
sg9
F-3.1707317073170733
sg10
I2
sg11
F101538.98897540302
sbag2
(g3
g4
Ntp4218
Rp4219
(dp4220
g8
F42.951219512195124
sg9
F-2.8048780487804876
sg10
I2
sg11
F101542.38349458086
sbag2
(g3
g4
Ntp4221
Rp4222
(dp4223
g8
F42.951219512195124
sg9
F-2.4390243902439024
sg10
I2
sg11
F101546.45200590865
sbag2
(g3
g4
Ntp4224
Rp4225
(dp4226
g8
F42.951219512195124
sg9
F-2.073170731707317
sg10
I2
sg11
F101551.46440383722
sbag2
(g3
g4
Ntp4227
Rp4228
(dp4229
g8
F42.951219512195124
sg9
F-1.707317073170732
sg10
I2
sg11
F101557.8615666207
sbag2
(g3
g4
Ntp4230
Rp4231
(dp4232
g8
F42.951219512195124
sg9
F-1.3414634146341466
sg10
I2
sg11
F101566.38855499131
sbag2
(g3
g4
Ntp4233
Rp4234
(dp4235
g8
F42.951219512195124
sg9
F-0.975609756097561
sg10
I2
sg11
F101578.61850256268
sbag2
(g3
g4
Ntp4236
Rp4237
(dp4238
g8
F42.951219512195124
sg9
F-0.6097560975609753
sg10
I2
sg11
F101598.825302563
sbag2
(g3
g4
Ntp4239
Rp4240
(dp4241
g8
F42.951219512195124
sg9
F-0.24390243902439046
sg10
I2
sg11
F101631.02166748233
sbag2
(g3
g4
Ntp4242
Rp4243
(dp4244
g8
F42.951219512195124
sg9
F0.12195121951219523
sg10
I2
sg11
F101640.18662181192
sbag2
(g3
g4
Ntp4245
Rp4246
(dp4247
g8
F42.951219512195124
sg9
F0.48780487804878003
sg10
I2
sg11
F101616.9117267393
sbag2
(g3
g4
Ntp4248
Rp4249
(dp4250
g8
F42.951219512195124
sg9
F0.8536585365853657
sg10
I2
sg11
F101626.32528006435
sbag2
(g3
g4
Ntp4251
Rp4252
(dp4253
g8
F42.951219512195124
sg9
F1.2195121951219514
sg10
I2
sg11
F101635.27284829781
sbag2
(g3
g4
Ntp4254
Rp4255
(dp4256
g8
F42.951219512195124
sg9
F1.5853658536585362
sg10
I2
sg11
F101596.60525871515
sbag2
(g3
g4
Ntp4257
Rp4258
(dp4259
g8
F42.951219512195124
sg9
F1.951219512195122
sg10
I2
sg11
F101547.79692686537
sbag2
(g3
g4
Ntp4260
Rp4261
(dp4262
g8
F42.951219512195124
sg9
F2.3170731707317067
sg10
I2
sg11
F101485.1385800482
sbag2
(g3
g4
Ntp4263
Rp4264
(dp4265
g8
F42.951219512195124
sg9
F2.6829268292682924
sg10
I2
sg11
F101420.2024508701
sbag2
(g3
g4
Ntp4266
Rp4267
(dp4268
g8
F42.951219512195124
sg9
F3.048780487804878
sg10
I2
sg11
F101409.80895719017
sbag2
(g3
g4
Ntp4269
Rp4270
(dp4271
g8
F42.951219512195124
sg9
F3.414634146341463
sg10
I2
sg11
F101409.93581620374
sbag2
(g3
g4
Ntp4272
Rp4273
(dp4274
g8
F42.951219512195124
sg9
F3.7804878048780495
sg10
I2
sg11
F101375.65345687486
sbag2
(g3
g4
Ntp4275
Rp4276
(dp4277
g8
F42.951219512195124
sg9
F4.146341463414634
sg10
I2
sg11
F101346.65782640866
sbag2
(g3
g4
Ntp4278
Rp4279
(dp4280
g8
F42.951219512195124
sg9
F4.512195121951219
sg10
I2
sg11
F101311.70083185809
sbag2
(g3
g4
Ntp4281
Rp4282
(dp4283
g8
F42.951219512195124
sg9
F4.878048780487804
sg10
I2
sg11
F101247.33473499022
sbag2
(g3
g4
Ntp4284
Rp4285
(dp4286
g8
F42.951219512195124
sg9
F5.2439024390243905
sg10
I2
sg11
F101193.01246512283
sbag2
(g3
g4
Ntp4287
Rp4288
(dp4289
g8
F42.951219512195124
sg9
F5.609756097560975
sg10
I2
sg11
F101131.9009032181
sbag2
(g3
g4
Ntp4290
Rp4291
(dp4292
g8
F42.951219512195124
sg9
F5.97560975609756
sg10
I2
sg11
F101065.07069095706
sbag2
(g3
g4
Ntp4293
Rp4294
(dp4295
g8
F42.951219512195124
sg9
F6.341463414634147
sg10
I2
sg11
F101149.3914250069
sbag2
(g3
g4
Ntp4296
Rp4297
(dp4298
g8
F42.951219512195124
sg9
F6.7073170731707314
sg10
I2
sg11
F101235.12764812169
sbag2
(g3
g4
Ntp4299
Rp4300
(dp4301
g8
F42.951219512195124
sg9
F7.073170731707316
sg10
I2
sg11
F101271.03068009458
sbag2
(g3
g4
Ntp4302
Rp4303
(dp4304
g8
F42.951219512195124
sg9
F7.439024390243903
sg10
I2
sg11
F101286.25437900811
sbag2
(g3
g4
Ntp4305
Rp4306
(dp4307
g8
F42.951219512195124
sg9
F7.804878048780488
sg10
I2
sg11
F101298.61322906769
sbag2
(g3
g4
Ntp4308
Rp4309
(dp4310
g8
F42.951219512195124
sg9
F8.170731707317072
sg10
I2
sg11
F101303.34709503932
sbag2
(g3
g4
Ntp4311
Rp4312
(dp4313
g8
F42.951219512195124
sg9
F8.536585365853659
sg10
I2
sg11
F101298.24455140755
sbag2
(g3
g4
Ntp4314
Rp4315
(dp4316
g8
F42.951219512195124
sg9
F8.902439024390244
sg10
I2
sg11
F101286.62796368815
sbag2
(g3
g4
Ntp4317
Rp4318
(dp4319
g8
F42.951219512195124
sg9
F9.268292682926829
sg10
I2
sg11
F101272.13183901353
sbag2
(g3
g4
Ntp4320
Rp4321
(dp4322
g8
F42.951219512195124
sg9
F9.634146341463413
sg10
I2
sg11
F101270.32600789133
sbag2
(g3
g4
Ntp4323
Rp4324
(dp4325
g8
F42.951219512195124
sg9
F10.0
sg10
I2
sg11
F101287.49522974827
sbaa(lp4326
g2
(g3
g4
Ntp4327
Rp4328
(dp4329
g8
F42.70731707317073
sg9
F-5.0
sg10
I2
sg11
F101528.4197358992
sbag2
(g3
g4
Ntp4330
Rp4331
(dp4332
g8
F42.70731707317073
sg9
F-4.634146341463414
sg10
I2
sg11
F101530.00169397783
sbag2
(g3
g4
Ntp4333
Rp4334
(dp4335
g8
F42.70731707317073
sg9
F-4.2682926829268295
sg10
I2
sg11
F101531.82986162564
sbag2
(g3
g4
Ntp4336
Rp4337
(dp4338
g8
F42.70731707317073
sg9
F-3.902439024390244
sg10
I2
sg11
F101533.94261960682
sbag2
(g3
g4
Ntp4339
Rp4340
(dp4341
g8
F42.70731707317073
sg9
F-3.5365853658536586
sg10
I2
sg11
F101536.38991083739
sbag2
(g3
g4
Ntp4342
Rp4343
(dp4344
g8
F42.70731707317073
sg9
F-3.1707317073170733
sg10
I2
sg11
F101539.24167784773
sbag2
(g3
g4
Ntp4345
Rp4346
(dp4347
g8
F42.70731707317073
sg9
F-2.8048780487804876
sg10
I2
sg11
F101542.60192814887
sbag2
(g3
g4
Ntp4348
Rp4349
(dp4350
g8
F42.70731707317073
sg9
F-2.4390243902439024
sg10
I2
sg11
F101546.63082943589
sbag2
(g3
g4
Ntp4351
Rp4352
(dp4353
g8
F42.70731707317073
sg9
F-2.073170731707317
sg10
I2
sg11
F101551.57801648532
sbag2
(g3
g4
Ntp4354
Rp4355
(dp4356
g8
F42.70731707317073
sg9
F-1.707317073170732
sg10
I2
sg11
F101557.83538542168
sbag2
(g3
g4
Ntp4357
Rp4358
(dp4359
g8
F42.70731707317073
sg9
F-1.3414634146341466
sg10
I2
sg11
F101566.04696988585
sbag2
(g3
g4
Ntp4360
Rp4361
(dp4362
g8
F42.70731707317073
sg9
F-0.975609756097561
sg10
I2
sg11
F101577.38582543608
sbag2
(g3
g4
Ntp4363
Rp4364
(dp4365
g8
F42.70731707317073
sg9
F-0.6097560975609753
sg10
I2
sg11
F101593.67295049303
sbag2
(g3
g4
Ntp4366
Rp4367
(dp4368
g8
F42.70731707317073
sg9
F-0.24390243902439046
sg10
I2
sg11
F101612.84628781113
sbag2
(g3
g4
Ntp4369
Rp4370
(dp4371
g8
F42.70731707317073
sg9
F0.12195121951219523
sg10
I2
sg11
F101617.72129079673
sbag2
(g3
g4
Ntp4372
Rp4373
(dp4374
g8
F42.70731707317073
sg9
F0.48780487804878003
sg10
I2
sg11
F101608.7513178933
sbag2
(g3
g4
Ntp4375
Rp4376
(dp4377
g8
F42.70731707317073
sg9
F0.8536585365853657
sg10
I2
sg11
F101615.25661414649
sbag2
(g3
g4
Ntp4378
Rp4379
(dp4380
g8
F42.70731707317073
sg9
F1.2195121951219514
sg10
I2
sg11
F101617.20663558602
sbag2
(g3
g4
Ntp4381
Rp4382
(dp4383
g8
F42.70731707317073
sg9
F1.5853658536585362
sg10
I2
sg11
F101584.19542765769
sbag2
(g3
g4
Ntp4384
Rp4385
(dp4386
g8
F42.70731707317073
sg9
F1.951219512195122
sg10
I2
sg11
F101535.59641832535
sbag2
(g3
g4
Ntp4387
Rp4388
(dp4389
g8
F42.70731707317073
sg9
F2.3170731707317067
sg10
I2
sg11
F101471.82347673786
sbag2
(g3
g4
Ntp4390
Rp4391
(dp4392
g8
F42.70731707317073
sg9
F2.6829268292682924
sg10
I2
sg11
F101403.51081444262
sbag2
(g3
g4
Ntp4393
Rp4394
(dp4395
g8
F42.70731707317073
sg9
F3.048780487804878
sg10
I2
sg11
F101398.23051908863
sbag2
(g3
g4
Ntp4396
Rp4397
(dp4398
g8
F42.70731707317073
sg9
F3.414634146341463
sg10
I2
sg11
F101411.76389461571
sbag2
(g3
g4
Ntp4399
Rp4400
(dp4401
g8
F42.70731707317073
sg9
F3.7804878048780495
sg10
I2
sg11
F101391.31131393624
sbag2
(g3
g4
Ntp4402
Rp4403
(dp4404
g8
F42.70731707317073
sg9
F4.146341463414634
sg10
I2
sg11
F101362.338967266
sbag2
(g3
g4
Ntp4405
Rp4406
(dp4407
g8
F42.70731707317073
sg9
F4.512195121951219
sg10
I2
sg11
F101326.04038190695
sbag2
(g3
g4
Ntp4408
Rp4409
(dp4410
g8
F42.70731707317073
sg9
F4.878048780487804
sg10
I2
sg11
F101276.40118297303
sbag2
(g3
g4
Ntp4411
Rp4412
(dp4413
g8
F42.70731707317073
sg9
F5.2439024390243905
sg10
I2
sg11
F101226.73373207165
sbag2
(g3
g4
Ntp4414
Rp4415
(dp4416
g8
F42.70731707317073
sg9
F5.609756097560975
sg10
I2
sg11
F101169.75503546065
sbag2
(g3
g4
Ntp4417
Rp4418
(dp4419
g8
F42.70731707317073
sg9
F5.97560975609756
sg10
I2
sg11
F101131.37680232583
sbag2
(g3
g4
Ntp4420
Rp4421
(dp4422
g8
F42.70731707317073
sg9
F6.341463414634147
sg10
I2
sg11
F101179.9629625413
sbag2
(g3
g4
Ntp4423
Rp4424
(dp4425
g8
F42.70731707317073
sg9
F6.7073170731707314
sg10
I2
sg11
F101242.62490920966
sbag2
(g3
g4
Ntp4426
Rp4427
(dp4428
g8
F42.70731707317073
sg9
F7.073170731707316
sg10
I2
sg11
F101276.94677952501
sbag2
(g3
g4
Ntp4429
Rp4430
(dp4431
g8
F42.70731707317073
sg9
F7.439024390243903
sg10
I2
sg11
F101292.78583476487
sbag2
(g3
g4
Ntp4432
Rp4433
(dp4434
g8
F42.70731707317073
sg9
F7.804878048780488
sg10
I2
sg11
F101299.81003668261
sbag2
(g3
g4
Ntp4435
Rp4436
(dp4437
g8
F42.70731707317073
sg9
F8.170731707317072
sg10
I2
sg11
F101297.11150145937
sbag2
(g3
g4
Ntp4438
Rp4439
(dp4440
g8
F42.70731707317073
sg9
F8.536585365853659
sg10
I2
sg11
F101286.8760321909
sbag2
(g3
g4
Ntp4441
Rp4442
(dp4443
g8
F42.70731707317073
sg9
F8.902439024390244
sg10
I2
sg11
F101274.88113614518
sbag2
(g3
g4
Ntp4444
Rp4445
(dp4446
g8
F42.70731707317073
sg9
F9.268292682926829
sg10
I2
sg11
F101258.42657949396
sbag2
(g3
g4
Ntp4447
Rp4448
(dp4449
g8
F42.70731707317073
sg9
F9.634146341463413
sg10
I2
sg11
F101255.89492621335
sbag2
(g3
g4
Ntp4450
Rp4451
(dp4452
g8
F42.70731707317073
sg9
F10.0
sg10
I2
sg11
F101276.66264287784
sbaa(lp4453
g2
(g3
g4
Ntp4454
Rp4455
(dp4456
g8
F42.46341463414634
sg9
F-5.0
sg10
I2
sg11
F101528.65723656245
sbag2
(g3
g4
Ntp4457
Rp4458
(dp4459
g8
F42.46341463414634
sg9
F-4.634146341463414
sg10
I2
sg11
F101530.21777792346
sbag2
(g3
g4
Ntp4460
Rp4461
(dp4462
g8
F42.46341463414634
sg9
F-4.2682926829268295
sg10
I2
sg11
F101532.01292876936
sbag2
(g3
g4
Ntp4463
Rp4464
(dp4465
g8
F42.46341463414634
sg9
F-3.902439024390244
sg10
I2
sg11
F101534.08010352596
sbag2
(g3
g4
Ntp4466
Rp4467
(dp4468
g8
F42.46341463414634
sg9
F-3.5365853658536586
sg10
I2
sg11
F101536.4681367267
sbag2
(g3
g4
Ntp4469
Rp4470
(dp4471
g8
F42.46341463414634
sg9
F-3.1707317073170733
sg10
I2
sg11
F101539.24437109014
sbag2
(g3
g4
Ntp4472
Rp4473
(dp4474
g8
F42.46341463414634
sg9
F-2.8048780487804876
sg10
I2
sg11
F101542.50554532623
sbag2
(g3
g4
Ntp4475
Rp4476
(dp4477
g8
F42.46341463414634
sg9
F-2.4390243902439024
sg10
I2
sg11
F101546.3934772164
sbag2
(g3
g4
Ntp4478
Rp4479
(dp4480
g8
F42.46341463414634
sg9
F-2.073170731707317
sg10
I2
sg11
F101551.11649012922
sbag2
(g3
g4
Ntp4481
Rp4482
(dp4483
g8
F42.46341463414634
sg9
F-1.707317073170732
sg10
I2
sg11
F101556.97873857609
sbag2
(g3
g4
Ntp4484
Rp4485
(dp4486
g8
F42.46341463414634
sg9
F-1.3414634146341466
sg10
I2
sg11
F101564.42083133842
sbag2
(g3
g4
Ntp4487
Rp4488
(dp4489
g8
F42.46341463414634
sg9
F-0.975609756097561
sg10
I2
sg11
F101574.01906433151
sbag2
(g3
g4
Ntp4490
Rp4491
(dp4492
g8
F42.46341463414634
sg9
F-0.6097560975609753
sg10
I2
sg11
F101585.9273806788
sbag2
(g3
g4
Ntp4493
Rp4494
(dp4495
g8
F42.46341463414634
sg9
F-0.24390243902439046
sg10
I2
sg11
F101597.21686095519
sbag2
(g3
g4
Ntp4496
Rp4497
(dp4498
g8
F42.46341463414634
sg9
F0.12195121951219523
sg10
I2
sg11
F101600.58226780384
sbag2
(g3
g4
Ntp4499
Rp4500
(dp4501
g8
F42.46341463414634
sg9
F0.48780487804878003
sg10
I2
sg11
F101597.77029117882
sbag2
(g3
g4
Ntp4502
Rp4503
(dp4504
g8
F42.46341463414634
sg9
F0.8536585365853657
sg10
I2
sg11
F101598.98065009562
sbag2
(g3
g4
Ntp4505
Rp4506
(dp4507
g8
F42.46341463414634
sg9
F1.2195121951219514
sg10
I2
sg11
F101594.10568945523
sbag2
(g3
g4
Ntp4508
Rp4509
(dp4510
g8
F42.46341463414634
sg9
F1.5853658536585362
sg10
I2
sg11
F101568.10485322466
sbag2
(g3
g4
Ntp4511
Rp4512
(dp4513
g8
F42.46341463414634
sg9
F1.951219512195122
sg10
I2
sg11
F101526.05942662155
sbag2
(g3
g4
Ntp4514
Rp4515
(dp4516
g8
F42.46341463414634
sg9
F2.3170731707317067
sg10
I2
sg11
F101471.6961926325
sbag2
(g3
g4
Ntp4517
Rp4518
(dp4519
g8
F42.46341463414634
sg9
F2.6829268292682924
sg10
I2
sg11
F101419.38085631734
sbag2
(g3
g4
Ntp4520
Rp4521
(dp4522
g8
F42.46341463414634
sg9
F3.048780487804878
sg10
I2
sg11
F101410.23480073662
sbag2
(g3
g4
Ntp4523
Rp4524
(dp4525
g8
F42.46341463414634
sg9
F3.414634146341463
sg10
I2
sg11
F101416.1013473272
sbag2
(g3
g4
Ntp4526
Rp4527
(dp4528
g8
F42.46341463414634
sg9
F3.7804878048780495
sg10
I2
sg11
F101400.65828839627
sbag2
(g3
g4
Ntp4529
Rp4530
(dp4531
g8
F42.46341463414634
sg9
F4.146341463414634
sg10
I2
sg11
F101374.19370899186
sbag2
(g3
g4
Ntp4532
Rp4533
(dp4534
g8
F42.46341463414634
sg9
F4.512195121951219
sg10
I2
sg11
F101340.80546860925
sbag2
(g3
g4
Ntp4535
Rp4536
(dp4537
g8
F42.46341463414634
sg9
F4.878048780487804
sg10
I2
sg11
F101300.33284065501
sbag2
(g3
g4
Ntp4538
Rp4539
(dp4540
g8
F42.46341463414634
sg9
F5.2439024390243905
sg10
I2
sg11
F101257.99517216432
sbag2
(g3
g4
Ntp4541
Rp4542
(dp4543
g8
F42.46341463414634
sg9
F5.609756097560975
sg10
I2
sg11
F101216.3368737896
sbag2
(g3
g4
Ntp4544
Rp4545
(dp4546
g8
F42.46341463414634
sg9
F5.97560975609756
sg10
I2
sg11
F101195.40913701704
sbag2
(g3
g4
Ntp4547
Rp4548
(dp4549
g8
F42.46341463414634
sg9
F6.341463414634147
sg10
I2
sg11
F101219.51576835076
sbag2
(g3
g4
Ntp4550
Rp4551
(dp4552
g8
F42.46341463414634
sg9
F6.7073170731707314
sg10
I2
sg11
F101258.46645166633
sbag2
(g3
g4
Ntp4553
Rp4554
(dp4555
g8
F42.46341463414634
sg9
F7.073170731707316
sg10
I2
sg11
F101285.02514752267
sbag2
(g3
g4
Ntp4556
Rp4557
(dp4558
g8
F42.46341463414634
sg9
F7.439024390243903
sg10
I2
sg11
F101297.7693660517
sbag2
(g3
g4
Ntp4559
Rp4560
(dp4561
g8
F42.46341463414634
sg9
F7.804878048780488
sg10
I2
sg11
F101299.38118388609
sbag2
(g3
g4
Ntp4562
Rp4563
(dp4564
g8
F42.46341463414634
sg9
F8.170731707317072
sg10
I2
sg11
F101289.43804330716
sbag2
(g3
g4
Ntp4565
Rp4566
(dp4567
g8
F42.46341463414634
sg9
F8.536585365853659
sg10
I2
sg11
F101273.8862100018
sbag2
(g3
g4
Ntp4568
Rp4569
(dp4570
g8
F42.46341463414634
sg9
F8.902439024390244
sg10
I2
sg11
F101265.48037390973
sbag2
(g3
g4
Ntp4571
Rp4572
(dp4573
g8
F42.46341463414634
sg9
F9.268292682926829
sg10
I2
sg11
F101255.4114158172
sbag2
(g3
g4
Ntp4574
Rp4575
(dp4576
g8
F42.46341463414634
sg9
F9.634146341463413
sg10
I2
sg11
F101253.20602486798
sbag2
(g3
g4
Ntp4577
Rp4578
(dp4579
g8
F42.46341463414634
sg9
F10.0
sg10
I2
sg11
F101273.70614117093
sbaa(lp4580
g2
(g3
g4
Ntp4581
Rp4582
(dp4583
g8
F42.21951219512195
sg9
F-5.0
sg10
I2
sg11
F101528.77733821736
sbag2
(g3
g4
Ntp4584
Rp4585
(dp4586
g8
F42.21951219512195
sg9
F-4.634146341463414
sg10
I2
sg11
F101530.30213425799
sbag2
(g3
g4
Ntp4587
Rp4588
(dp4589
g8
F42.21951219512195
sg9
F-4.2682926829268295
sg10
I2
sg11
F101532.04742300422
sbag2
(g3
g4
Ntp4590
Rp4591
(dp4592
g8
F42.21951219512195
sg9
F-3.902439024390244
sg10
I2
sg11
F101534.04799926768
sbag2
(g3
g4
Ntp4593
Rp4594
(dp4595
g8
F42.21951219512195
sg9
F-3.5365853658536586
sg10
I2
sg11
F101536.34877000595
sbag2
(g3
g4
Ntp4596
Rp4597
(dp4598
g8
F42.21951219512195
sg9
F-3.1707317073170733
sg10
I2
sg11
F101539.01002767512
sbag2
(g3
g4
Ntp4599
Rp4600
(dp4601
g8
F42.21951219512195
sg9
F-2.8048780487804876
sg10
I2
sg11
F101542.11474248336
sbag2
(g3
g4
Ntp4602
Rp4603
(dp4604
g8
F42.21951219512195
sg9
F-2.4390243902439024
sg10
I2
sg11
F101545.77758517695
sbag2
(g3
g4
Ntp4605
Rp4606
(dp4607
g8
F42.21951219512195
sg9
F-2.073170731707317
sg10
I2
sg11
F101550.15415063754
sbag2
(g3
g4
Ntp4608
Rp4609
(dp4610
g8
F42.21951219512195
sg9
F-1.707317073170732
sg10
I2
sg11
F101555.44557493951
sbag2
(g3
g4
Ntp4611
Rp4612
(dp4613
g8
F42.21951219512195
sg9
F-1.3414634146341466
sg10
I2
sg11
F101561.8793823703
sbag2
(g3
g4
Ntp4614
Rp4615
(dp4616
g8
F42.21951219512195
sg9
F-0.975609756097561
sg10
I2
sg11
F101569.57860869741
sbag2
(g3
g4
Ntp4617
Rp4618
(dp4619
g8
F42.21951219512195
sg9
F-0.6097560975609753
sg10
I2
sg11
F101578.03375762718
sbag2
(g3
g4
Ntp4620
Rp4621
(dp4622
g8
F42.21951219512195
sg9
F-0.24390243902439046
sg10
I2
sg11
F101585.04176167237
sbag2
(g3
g4
Ntp4623
Rp4624
(dp4625
g8
F42.21951219512195
sg9
F0.12195121951219523
sg10
I2
sg11
F101587.46481872213
sbag2
(g3
g4
Ntp4626
Rp4627
(dp4628
g8
F42.21951219512195
sg9
F0.48780487804878003
sg10
I2
sg11
F101586.11360751813
sbag2
(g3
g4
Ntp4629
Rp4630
(dp4631
g8
F42.21951219512195
sg9
F0.8536585365853657
sg10
I2
sg11
F101583.76097455066
sbag2
(g3
g4
Ntp4632
Rp4633
(dp4634
g8
F42.21951219512195
sg9
F1.2195121951219514
sg10
I2
sg11
F101575.30511982799
sbag2
(g3
g4
Ntp4635
Rp4636
(dp4637
g8
F42.21951219512195
sg9
F1.5853658536585362
sg10
I2
sg11
F101553.61452822153
sbag2
(g3
g4
Ntp4638
Rp4639
(dp4640
g8
F42.21951219512195
sg9
F1.951219512195122
sg10
I2
sg11
F101519.59743586055
sbag2
(g3
g4
Ntp4641
Rp4642
(dp4643
g8
F42.21951219512195
sg9
F2.3170731707317067
sg10
I2
sg11
F101477.95637807193
sbag2
(g3
g4
Ntp4644
Rp4645
(dp4646
g8
F42.21951219512195
sg9
F2.6829268292682924
sg10
I2
sg11
F101441.33024872481
sbag2
(g3
g4
Ntp4647
Rp4648
(dp4649
g8
F42.21951219512195
sg9
F3.048780487804878
sg10
I2
sg11
F101427.5136965192
sbag2
(g3
g4
Ntp4650
Rp4651
(dp4652
g8
F42.21951219512195
sg9
F3.414634146341463
sg10
I2
sg11
F101422.71125390491
sbag2
(g3
g4
Ntp4653
Rp4654
(dp4655
g8
F42.21951219512195
sg9
F3.7804878048780495
sg10
I2
sg11
F101407.72646681937
sbag2
(g3
g4
Ntp4656
Rp4657
(dp4658
g8
F42.21951219512195
sg9
F4.146341463414634
sg10
I2
sg11
F101384.0101485436
sbag2
(g3
g4
Ntp4659
Rp4660
(dp4661
g8
F42.21951219512195
sg9
F4.512195121951219
sg10
I2
sg11
F101354.59048864794
sbag2
(g3
g4
Ntp4662
Rp4663
(dp4664
g8
F42.21951219512195
sg9
F4.878048780487804
sg10
I2
sg11
F101321.02372359166
sbag2
(g3
g4
Ntp4665
Rp4666
(dp4667
g8
F42.21951219512195
sg9
F5.2439024390243905
sg10
I2
sg11
F101286.77035588161
sbag2
(g3
g4
Ntp4668
Rp4669
(dp4670
g8
F42.21951219512195
sg9
F5.609756097560975
sg10
I2
sg11
F101256.94754537361
sbag2
(g3
g4
Ntp4671
Rp4672
(dp4673
g8
F42.21951219512195
sg9
F5.97560975609756
sg10
I2
sg11
F101243.40082881867
sbag2
(g3
g4
Ntp4674
Rp4675
(dp4676
g8
F42.21951219512195
sg9
F6.341463414634147
sg10
I2
sg11
F101254.49466099047
sbag2
(g3
g4
Ntp4677
Rp4678
(dp4679
g8
F42.21951219512195
sg9
F6.7073170731707314
sg10
I2
sg11
F101276.8539570492
sbag2
(g3
g4
Ntp4680
Rp4681
(dp4682
g8
F42.21951219512195
sg9
F7.073170731707316
sg10
I2
sg11
F101294.5738802136
sbag2
(g3
g4
Ntp4683
Rp4684
(dp4685
g8
F42.21951219512195
sg9
F7.439024390243903
sg10
I2
sg11
F101302.3598611687
sbag2
(g3
g4
Ntp4686
Rp4687
(dp4688
g8
F42.21951219512195
sg9
F7.804878048780488
sg10
I2
sg11
F101298.52082816046
sbag2
(g3
g4
Ntp4689
Rp4690
(dp4691
g8
F42.21951219512195
sg9
F8.170731707317072
sg10
I2
sg11
F101281.66353236344
sbag2
(g3
g4
Ntp4692
Rp4693
(dp4694
g8
F42.21951219512195
sg9
F8.536585365853659
sg10
I2
sg11
F101259.18522460142
sbag2
(g3
g4
Ntp4695
Rp4696
(dp4697
g8
F42.21951219512195
sg9
F8.902439024390244
sg10
I2
sg11
F101253.0732004394
sbag2
(g3
g4
Ntp4698
Rp4699
(dp4700
g8
F42.21951219512195
sg9
F9.268292682926829
sg10
I2
sg11
F101259.35060600276
sbag2
(g3
g4
Ntp4701
Rp4702
(dp4703
g8
F42.21951219512195
sg9
F9.634146341463413
sg10
I2
sg11
F101261.26444827723
sbag2
(g3
g4
Ntp4704
Rp4705
(dp4706
g8
F42.21951219512195
sg9
F10.0
sg10
I2
sg11
F101277.89575407871
sbaa(lp4707
g2
(g3
g4
Ntp4708
Rp4709
(dp4710
g8
F41.97560975609756
sg9
F-5.0
sg10
I2
sg11
F101528.78748049837
sbag2
(g3
g4
Ntp4711
Rp4712
(dp4713
g8
F41.97560975609756
sg9
F-4.634146341463414
sg10
I2
sg11
F101530.26329143567
sbag2
(g3
g4
Ntp4714
Rp4715
(dp4716
g8
F41.97560975609756
sg9
F-4.2682926829268295
sg10
I2
sg11
F101531.94309507844
sbag2
(g3
g4
Ntp4717
Rp4718
(dp4719
g8
F41.97560975609756
sg9
F-3.902439024390244
sg10
I2
sg11
F101533.85771933862
sbag2
(g3
g4
Ntp4720
Rp4721
(dp4722
g8
F41.97560975609756
sg9
F-3.5365853658536586
sg10
I2
sg11
F101536.04605113238
sbag2
(g3
g4
Ntp4723
Rp4724
(dp4725
g8
F41.97560975609756
sg9
F-3.1707317073170733
sg10
I2
sg11
F101538.5583740726
sbag2
(g3
g4
Ntp4726
Rp4727
(dp4728
g8
F41.97560975609756
sg9
F-2.8048780487804876
sg10
I2
sg11
F101541.46019723694
sbag2
(g3
g4
Ntp4729
Rp4730
(dp4731
g8
F41.97560975609756
sg9
F-2.4390243902439024
sg10
I2
sg11
F101544.83533104704
sbag2
(g3
g4
Ntp4732
Rp4733
(dp4734
g8
F41.97560975609756
sg9
F-2.073170731707317
sg10
I2
sg11
F101548.78496746256
sbag2
(g3
g4
Ntp4735
Rp4736
(dp4737
g8
F41.97560975609756
sg9
F-1.707317073170732
sg10
I2
sg11
F101553.41446840148
sbag2
(g3
g4
Ntp4738
Rp4739
(dp4740
g8
F41.97560975609756
sg9
F-1.3414634146341466
sg10
I2
sg11
F101558.78483349018
sbag2
(g3
g4
Ntp4741
Rp4742
(dp4743
g8
F41.97560975609756
sg9
F-0.975609756097561
sg10
I2
sg11
F101564.76859161354
sbag2
(g3
g4
Ntp4744
Rp4745
(dp4746
g8
F41.97560975609756
sg9
F-0.6097560975609753
sg10
I2
sg11
F101570.72477033602
sbag2
(g3
g4
Ntp4747
Rp4748
(dp4749
g8
F41.97560975609756
sg9
F-0.24390243902439046
sg10
I2
sg11
F101575.1941263425
sbag2
(g3
g4
Ntp4750
Rp4751
(dp4752
g8
F41.97560975609756
sg9
F0.12195121951219523
sg10
I2
sg11
F101576.62861734418
sbag2
(g3
g4
Ntp4753
Rp4754
(dp4755
g8
F41.97560975609756
sg9
F0.48780487804878003
sg10
I2
sg11
F101575.04568408843
sbag2
(g3
g4
Ntp4756
Rp4757
(dp4758
g8
F41.97560975609756
sg9
F0.8536585365853657
sg10
I2
sg11
F101570.72649903626
sbag2
(g3
g4
Ntp4759
Rp4760
(dp4761
g8
F41.97560975609756
sg9
F1.2195121951219514
sg10
I2
sg11
F101560.93823023191
sbag2
(g3
g4
Ntp4762
Rp4763
(dp4764
g8
F41.97560975609756
sg9
F1.5853658536585362
sg10
I2
sg11
F101542.32768876721
sbag2
(g3
g4
Ntp4765
Rp4766
(dp4767
g8
F41.97560975609756
sg9
F1.951219512195122
sg10
I2
sg11
F101515.2784994591
sbag2
(g3
g4
Ntp4768
Rp4769
(dp4770
g8
F41.97560975609756
sg9
F2.3170731707317067
sg10
I2
sg11
F101483.93568496528
sbag2
(g3
g4
Ntp4771
Rp4772
(dp4773
g8
F41.97560975609756
sg9
F2.6829268292682924
sg10
I2
sg11
F101456.65311099733
sbag2
(g3
g4
Ntp4774
Rp4775
(dp4776
g8
F41.97560975609756
sg9
F3.048780487804878
sg10
I2
sg11
F101440.639688272
sbag2
(g3
g4
Ntp4777
Rp4778
(dp4779
g8
F41.97560975609756
sg9
F3.414634146341463
sg10
I2
sg11
F101429.584018824
sbag2
(g3
g4
Ntp4780
Rp4781
(dp4782
g8
F41.97560975609756
sg9
F3.7804878048780495
sg10
I2
sg11
F101413.99425923325
sbag2
(g3
g4
Ntp4783
Rp4784
(dp4785
g8
F41.97560975609756
sg9
F4.146341463414634
sg10
I2
sg11
F101392.6229462664
sbag2
(g3
g4
Ntp4786
Rp4787
(dp4788
g8
F41.97560975609756
sg9
F4.512195121951219
sg10
I2
sg11
F101367.06124740615
sbag2
(g3
g4
Ntp4789
Rp4790
(dp4791
g8
F41.97560975609756
sg9
F4.878048780487804
sg10
I2
sg11
F101339.10723461967
sbag2
(g3
g4
Ntp4792
Rp4793
(dp4794
g8
F41.97560975609756
sg9
F5.2439024390243905
sg10
I2
sg11
F101311.68570760121
sbag2
(g3
g4
Ntp4795
Rp4796
(dp4797
g8
F41.97560975609756
sg9
F5.609756097560975
sg10
I2
sg11
F101289.37220385794
sbag2
(g3
g4
Ntp4798
Rp4799
(dp4800
g8
F41.97560975609756
sg9
F5.97560975609756
sg10
I2
sg11
F101278.73797965622
sbag2
(g3
g4
Ntp4801
Rp4802
(dp4803
g8
F41.97560975609756
sg9
F6.341463414634147
sg10
I2
sg11
F101282.67275831294
sbag2
(g3
g4
Ntp4804
Rp4805
(dp4806
g8
F41.97560975609756
sg9
F6.7073170731707314
sg10
I2
sg11
F101294.42081446548
sbag2
(g3
g4
Ntp4807
Rp4808
(dp4809
g8
F41.97560975609756
sg9
F7.073170731707316
sg10
I2
sg11
F101304.51105943105
sbag2
(g3
g4
Ntp4810
Rp4811
(dp4812
g8
F41.97560975609756
sg9
F7.439024390243903
sg10
I2
sg11
F101307.19542367941
sbag2
(g3
g4
Ntp4813
Rp4814
(dp4815
g8
F41.97560975609756
sg9
F7.804878048780488
sg10
I2
sg11
F101298.805049425
sbag2
(g3
g4
Ntp4816
Rp4817
(dp4818
g8
F41.97560975609756
sg9
F8.170731707317072
sg10
I2
sg11
F101277.14621821689
sbag2
(g3
g4
Ntp4819
Rp4820
(dp4821
g8
F41.97560975609756
sg9
F8.536585365853659
sg10
I2
sg11
F101249.46775982565
sbag2
(g3
g4
Ntp4822
Rp4823
(dp4824
g8
F41.97560975609756
sg9
F8.902439024390244
sg10
I2
sg11
F101242.30654129815
sbag2
(g3
g4
Ntp4825
Rp4826
(dp4827
g8
F41.97560975609756
sg9
F9.268292682926829
sg10
I2
sg11
F101260.49638971202
sbag2
(g3
g4
Ntp4828
Rp4829
(dp4830
g8
F41.97560975609756
sg9
F9.634146341463413
sg10
I2
sg11
F101271.11829421061
sbag2
(g3
g4
Ntp4831
Rp4832
(dp4833
g8
F41.97560975609756
sg9
F10.0
sg10
I2
sg11
F101285.58132291745
sbaa(lp4834
g2
(g3
g4
Ntp4835
Rp4836
(dp4837
g8
F41.73170731707317
sg9
F-5.0
sg10
I2
sg11
F101528.69546922934
sbag2
(g3
g4
Ntp4838
Rp4839
(dp4840
g8
F41.73170731707317
sg9
F-4.634146341463414
sg10
I2
sg11
F101530.11042170238
sbag2
(g3
g4
Ntp4841
Rp4842
(dp4843
g8
F41.73170731707317
sg9
F-4.2682926829268295
sg10
I2
sg11
F101531.71085036997
sbag2
(g3
g4
Ntp4844
Rp4845
(dp4846
g8
F41.73170731707317
sg9
F-3.902439024390244
sg10
I2
sg11
F101533.52266475682
sbag2
(g3
g4
Ntp4847
Rp4848
(dp4849
g8
F41.73170731707317
sg9
F-3.5365853658536586
sg10
I2
sg11
F101535.57742237805
sbag2
(g3
g4
Ntp4850
Rp4851
(dp4852
g8
F41.73170731707317
sg9
F-3.1707317073170733
sg10
I2
sg11
F101537.91387093208
sbag2
(g3
g4
Ntp4853
Rp4854
(dp4855
g8
F41.73170731707317
sg9
F-2.8048780487804876
sg10
I2
sg11
F101540.5788410861
sbag2
(g3
g4
Ntp4856
Rp4857
(dp4858
g8
F41.73170731707317
sg9
F-2.4390243902439024
sg10
I2
sg11
F101543.62574811217
sbag2
(g3
g4
Ntp4859
Rp4860
(dp4861
g8
F41.73170731707317
sg9
F-2.073170731707317
sg10
I2
sg11
F101547.10691175617
sbag2
(g3
g4
Ntp4862
Rp4863
(dp4864
g8
F41.73170731707317
sg9
F-1.707317073170732
sg10
I2
sg11
F101551.05156667242
sbag2
(g3
g4
Ntp4865
Rp4866
(dp4867
g8
F41.73170731707317
sg9
F-1.3414634146341466
sg10
I2
sg11
F101555.41273858536
sbag2
(g3
g4
Ntp4868
Rp4869
(dp4870
g8
F41.73170731707317
sg9
F-0.975609756097561
sg10
I2
sg11
F101559.95660454211
sbag2
(g3
g4
Ntp4871
Rp4872
(dp4873
g8
F41.73170731707317
sg9
F-0.6097560975609753
sg10
I2
sg11
F101564.09863691054
sbag2
(g3
g4
Ntp4874
Rp4875
(dp4876
g8
F41.73170731707317
sg9
F-0.24390243902439046
sg10
I2
sg11
F101566.86425641642
sbag2
(g3
g4
Ntp4877
Rp4878
(dp4879
g8
F41.73170731707317
sg9
F0.12195121951219523
sg10
I2
sg11
F101567.31865802778
sbag2
(g3
g4
Ntp4880
Rp4881
(dp4882
g8
F41.73170731707317
sg9
F0.48780487804878003
sg10
I2
sg11
F101565.10574381254
sbag2
(g3
g4
Ntp4883
Rp4884
(dp4885
g8
F41.73170731707317
sg9
F0.8536585365853657
sg10
I2
sg11
F101559.80168598691
sbag2
(g3
g4
Ntp4886
Rp4887
(dp4888
g8
F41.73170731707317
sg9
F1.2195121951219514
sg10
I2
sg11
F101549.8706178299
sbag2
(g3
g4
Ntp4889
Rp4890
(dp4891
g8
F41.73170731707317
sg9
F1.5853658536585362
sg10
I2
sg11
F101533.78441958908
sbag2
(g3
g4
Ntp4892
Rp4893
(dp4894
g8
F41.73170731707317
sg9
F1.951219512195122
sg10
I2
sg11
F101512.05861611474
sbag2
(g3
g4
Ntp4895
Rp4896
(dp4897
g8
F41.73170731707317
sg9
F2.3170731707317067
sg10
I2
sg11
F101487.76785869597
sbag2
(g3
g4
Ntp4898
Rp4899
(dp4900
g8
F41.73170731707317
sg9
F2.6829268292682924
sg10
I2
sg11
F101465.85601370018
sbag2
(g3
g4
Ntp4901
Rp4902
(dp4903
g8
F41.73170731707317
sg9
F3.048780487804878
sg10
I2
sg11
F101449.45447258215
sbag2
(g3
g4
Ntp4904
Rp4905
(dp4906
g8
F41.73170731707317
sg9
F3.414634146341463
sg10
I2
sg11
F101435.67747697362
sbag2
(g3
g4
Ntp4907
Rp4908
(dp4909
g8
F41.73170731707317
sg9
F3.7804878048780495
sg10
I2
sg11
F101419.81301174262
sbag2
(g3
g4
Ntp4910
Rp4911
(dp4912
g8
F41.73170731707317
sg9
F4.146341463414634
sg10
I2
sg11
F101400.40807812159
sbag2
(g3
g4
Ntp4913
Rp4914
(dp4915
g8
F41.73170731707317
sg9
F4.512195121951219
sg10
I2
sg11
F101378.20992100048
sbag2
(g3
g4
Ntp4916
Rp4917
(dp4918
g8
F41.73170731707317
sg9
F4.878048780487804
sg10
I2
sg11
F101354.77542381165
sbag2
(g3
g4
Ntp4919
Rp4920
(dp4921
g8
F41.73170731707317
sg9
F5.2439024390243905
sg10
I2
sg11
F101332.52314571565
sbag2
(g3
g4
Ntp4922
Rp4923
(dp4924
g8
F41.73170731707317
sg9
F5.609756097560975
sg10
I2
sg11
F101314.84345296469
sbag2
(g3
g4
Ntp4925
Rp4926
(dp4927
g8
F41.73170731707317
sg9
F5.97560975609756
sg10
I2
sg11
F101305.3763097478
sbag2
(g3
g4
Ntp4928
Rp4929
(dp4930
g8
F41.73170731707317
sg9
F6.341463414634147
sg10
I2
sg11
F101305.06318708653
sbag2
(g3
g4
Ntp4931
Rp4932
(dp4933
g8
F41.73170731707317
sg9
F6.7073170731707314
sg10
I2
sg11
F101310.01698865279
sbag2
(g3
g4
Ntp4934
Rp4935
(dp4936
g8
F41.73170731707317
sg9
F7.073170731707316
sg10
I2
sg11
F101314.24475257527
sbag2
(g3
g4
Ntp4937
Rp4938
(dp4939
g8
F41.73170731707317
sg9
F7.439024390243903
sg10
I2
sg11
F101312.7330250471
sbag2
(g3
g4
Ntp4940
Rp4941
(dp4942
g8
F41.73170731707317
sg9
F7.804878048780488
sg10
I2
sg11
F101301.58102203163
sbag2
(g3
g4
Ntp4943
Rp4944
(dp4945
g8
F41.73170731707317
sg9
F8.170731707317072
sg10
I2
sg11
F101279.05133146778
sbag2
(g3
g4
Ntp4946
Rp4947
(dp4948
g8
F41.73170731707317
sg9
F8.536585365853659
sg10
I2
sg11
F101252.77423733588
sbag2
(g3
g4
Ntp4949
Rp4950
(dp4951
g8
F41.73170731707317
sg9
F8.902439024390244
sg10
I2
sg11
F101246.257082438
sbag2
(g3
g4
Ntp4952
Rp4953
(dp4954
g8
F41.73170731707317
sg9
F9.268292682926829
sg10
I2
sg11
F101263.89708138934
sbag2
(g3
g4
Ntp4955
Rp4956
(dp4957
g8
F41.73170731707317
sg9
F9.634146341463413
sg10
I2
sg11
F101279.43044912998
sbag2
(g3
g4
Ntp4958
Rp4959
(dp4960
g8
F41.73170731707317
sg9
F10.0
sg10
I2
sg11
F101294.02853760085
sbaa(lp4961
g2
(g3
g4
Ntp4962
Rp4963
(dp4964
g8
F41.48780487804878
sg9
F-5.0
sg10
I2
sg11
F101528.509452375
sbag2
(g3
g4
Ntp4965
Rp4966
(dp4967
g8
F41.48780487804878
sg9
F-4.634146341463414
sg10
I2
sg11
F101529.8532618683
sbag2
(g3
g4
Ntp4968
Rp4969
(dp4970
g8
F41.48780487804878
sg9
F-4.2682926829268295
sg10
I2
sg11
F101531.36252754732
sbag2
(g3
g4
Ntp4971
Rp4972
(dp4973
g8
F41.48780487804878
sg9
F-3.902439024390244
sg10
I2
sg11
F101533.05770266234
sbag2
(g3
g4
Ntp4974
Rp4975
(dp4976
g8
F41.48780487804878
sg9
F-3.5365853658536586
sg10
I2
sg11
F101534.9624366964
sbag2
(g3
g4
Ntp4977
Rp4978
(dp4979
g8
F41.48780487804878
sg9
F-3.1707317073170733
sg10
I2
sg11
F101537.10362762038
sbag2
(g3
g4
Ntp4980
Rp4981
(dp4982
g8
F41.48780487804878
sg9
F-2.8048780487804876
sg10
I2
sg11
F101539.51011227007
sbag2
(g3
g4
Ntp4983
Rp4984
(dp4985
g8
F41.48780487804878
sg9
F-2.4390243902439024
sg10
I2
sg11
F101542.2081865256
sbag2
(g3
g4
Ntp4986
Rp4987
(dp4988
g8
F41.48780487804878
sg9
F-2.073170731707317
sg10
I2
sg11
F101545.21054861763
sbag2
(g3
g4
Ntp4989
Rp4990
(dp4991
g8
F41.48780487804878
sg9
F-1.707317073170732
sg10
I2
sg11
F101548.4926346006
sbag2
(g3
g4
Ntp4992
Rp4993
(dp4994
g8
F41.48780487804878
sg9
F-1.3414634146341466
sg10
I2
sg11
F101551.94736774662
sbag2
(g3
g4
Ntp4995
Rp4996
(dp4997
g8
F41.48780487804878
sg9
F-0.975609756097561
sg10
I2
sg11
F101555.31287754202
sbag2
(g3
g4
Ntp4998
Rp4999
(dp5000
g8
F41.48780487804878
sg9
F-0.6097560975609753
sg10
I2
sg11
F101558.09997691103
sbag2
(g3
g4
Ntp5001
Rp5002
(dp5003
g8
F41.48780487804878
sg9
F-0.24390243902439046
sg10
I2
sg11
F101559.62106353804
sbag2
(g3
g4
Ntp5004
Rp5005
(dp5006
g8
F41.48780487804878
sg9
F0.12195121951219523
sg10
I2
sg11
F101559.21194098877
sbag2
(g3
g4
Ntp5007
Rp5008
(dp5009
g8
F41.48780487804878
sg9
F0.48780487804878003
sg10
I2
sg11
F101556.41097525327
sbag2
(g3
g4
Ntp5010
Rp5011
(dp5012
g8
F41.48780487804878
sg9
F0.8536585365853657
sg10
I2
sg11
F101550.68804057298
sbag2
(g3
g4
Ntp5013
Rp5014
(dp5015
g8
F41.48780487804878
sg9
F1.2195121951219514
sg10
I2
sg11
F101541.16048958013
sbag2
(g3
g4
Ntp5016
Rp5017
(dp5018
g8
F41.48780487804878
sg9
F1.5853658536585362
sg10
I2
sg11
F101527.18451900069
sbag2
(g3
g4
Ntp5019
Rp5020
(dp5021
g8
F41.48780487804878
sg9
F1.951219512195122
sg10
I2
sg11
F101509.342553905
sbag2
(g3
g4
Ntp5022
Rp5023
(dp5024
g8
F41.48780487804878
sg9
F2.3170731707317067
sg10
I2
sg11
F101489.73829315465
sbag2
(g3
g4
Ntp5025
Rp5026
(dp5027
g8
F41.48780487804878
sg9
F2.6829268292682924
sg10
I2
sg11
F101471.23052204655
sbag2
(g3
g4
Ntp5028
Rp5029
(dp5030
g8
F41.48780487804878
sg9
F3.048780487804878
sg10
I2
sg11
F101455.3565189714
sbag2
(g3
g4
Ntp5031
Rp5032
(dp5033
g8
F41.48780487804878
sg9
F3.414634146341463
sg10
I2
sg11
F101440.80149782969
sbag2
(g3
g4
Ntp5034
Rp5035
(dp5036
g8
F41.48780487804878
sg9
F3.7804878048780495
sg10
I2
sg11
F101425.19927966502
sbag2
(g3
g4
Ntp5037
Rp5038
(dp5039
g8
F41.48780487804878
sg9
F4.146341463414634
sg10
I2
sg11
F101407.50997835227
sbag2
(g3
g4
Ntp5040
Rp5041
(dp5042
g8
F41.48780487804878
sg9
F4.512195121951219
sg10
I2
sg11
F101388.11615028189
sbag2
(g3
g4
Ntp5043
Rp5044
(dp5045
g8
F41.48780487804878
sg9
F4.878048780487804
sg10
I2
sg11
F101368.23809642244
sbag2
(g3
g4
Ntp5046
Rp5047
(dp5048
g8
F41.48780487804878
sg9
F5.2439024390243905
sg10
I2
sg11
F101349.75209363761
sbag2
(g3
g4
Ntp5049
Rp5050
(dp5051
g8
F41.48780487804878
sg9
F5.609756097560975
sg10
I2
sg11
F101335.00232966075
sbag2
(g3
g4
Ntp5052
Rp5053
(dp5054
g8
F41.48780487804878
sg9
F5.97560975609756
sg10
I2
sg11
F101326.03618930092
sbag2
(g3
g4
Ntp5055
Rp5056
(dp5057
g8
F41.48780487804878
sg9
F6.341463414634147
sg10
I2
sg11
F101323.06233761908
sbag2
(g3
g4
Ntp5058
Rp5059
(dp5060
g8
F41.48780487804878
sg9
F6.7073170731707314
sg10
I2
sg11
F101323.5986718384
sbag2
(g3
g4
Ntp5061
Rp5062
(dp5063
g8
F41.48780487804878
sg9
F7.073170731707316
sg10
I2
sg11
F101323.63861366342
sbag2
(g3
g4
Ntp5064
Rp5065
(dp5066
g8
F41.48780487804878
sg9
F7.439024390243903
sg10
I2
sg11
F101319.23344860197
sbag2
(g3
g4
Ntp5067
Rp5068
(dp5069
g8
F41.48780487804878
sg9
F7.804878048780488
sg10
I2
sg11
F101307.23923976066
sbag2
(g3
g4
Ntp5070
Rp5071
(dp5072
g8
F41.48780487804878
sg9
F8.170731707317072
sg10
I2
sg11
F101287.14360548728
sbag2
(g3
g4
Ntp5073
Rp5074
(dp5075
g8
F41.48780487804878
sg9
F8.536585365853659
sg10
I2
sg11
F101266.35142483994
sbag2
(g3
g4
Ntp5076
Rp5077
(dp5078
g8
F41.48780487804878
sg9
F8.902439024390244
sg10
I2
sg11
F101260.99723330264
sbag2
(g3
g4
Ntp5079
Rp5080
(dp5081
g8
F41.48780487804878
sg9
F9.268292682926829
sg10
I2
sg11
F101273.31838377705
sbag2
(g3
g4
Ntp5082
Rp5083
(dp5084
g8
F41.48780487804878
sg9
F9.634146341463413
sg10
I2
sg11
F101288.3015682252
sbag2
(g3
g4
Ntp5085
Rp5086
(dp5087
g8
F41.48780487804878
sg9
F10.0
sg10
I2
sg11
F101302.70915013117
sbaa(lp5088
g2
(g3
g4
Ntp5089
Rp5090
(dp5091
g8
F41.24390243902439
sg9
F-5.0
sg10
I2
sg11
F101528.23784174157
sbag2
(g3
g4
Ntp5092
Rp5093
(dp5094
g8
F41.24390243902439
sg9
F-4.634146341463414
sg10
I2
sg11
F101529.50195759986
sbag2
(g3
g4
Ntp5095
Rp5096
(dp5097
g8
F41.24390243902439
sg9
F-4.2682926829268295
sg10
I2
sg11
F101530.91058548058
sbag2
(g3
g4
Ntp5098
Rp5099
(dp5100
g8
F41.24390243902439
sg9
F-3.902439024390244
sg10
I2
sg11
F101532.47856387898
sbag2
(g3
g4
Ntp5101
Rp5102
(dp5103
g8
F41.24390243902439
sg9
F-3.5365853658536586
sg10
I2
sg11
F101534.22166454699
sbag2
(g3
g4
Ntp5104
Rp5105
(dp5106
g8
F41.24390243902439
sg9
F-3.1707317073170733
sg10
I2
sg11
F101536.15553387268
sbag2
(g3
g4
Ntp5107
Rp5108
(dp5109
g8
F41.24390243902439
sg9
F-2.8048780487804876
sg10
I2
sg11
F101538.2929450063
sbag2
(g3
g4
Ntp5110
Rp5111
(dp5112
g8
F41.24390243902439
sg9
F-2.4390243902439024
sg10
I2
sg11
F101540.63778190027
sbag2
(g3
g4
Ntp5113
Rp5114
(dp5115
g8
F41.24390243902439
sg9
F-2.073170731707317
sg10
I2
sg11
F101543.17319196933
sbag2
(g3
g4
Ntp5116
Rp5117
(dp5118
g8
F41.24390243902439
sg9
F-1.707317073170732
sg10
I2
sg11
F101545.84029492759
sbag2
(g3
g4
Ntp5119
Rp5120
(dp5121
g8
F41.24390243902439
sg9
F-1.3414634146341466
sg10
I2
sg11
F101548.50421535512
sbag2
(g3
g4
Ntp5122
Rp5123
(dp5124
g8
F41.24390243902439
sg9
F-0.975609756097561
sg10
I2
sg11
F101550.91089992085
sbag2
(g3
g4
Ntp5125
Rp5126
(dp5127
g8
F41.24390243902439
sg9
F-0.6097560975609753
sg10
I2
sg11
F101552.65881844368
sbag2
(g3
g4
Ntp5128
Rp5129
(dp5130
g8
F41.24390243902439
sg9
F-0.24390243902439046
sg10
I2
sg11
F101553.2344163161
sbag2
(g3
g4
Ntp5131
Rp5132
(dp5133
g8
F41.24390243902439
sg9
F0.12195121951219523
sg10
I2
sg11
F101552.12476345299
sbag2
(g3
g4
Ntp5134
Rp5135
(dp5136
g8
F41.24390243902439
sg9
F0.48780487804878003
sg10
I2
sg11
F101548.88827063132
sbag2
(g3
g4
Ntp5137
Rp5138
(dp5139
g8
F41.24390243902439
sg9
F0.8536585365853657
sg10
I2
sg11
F101543.06576412529
sbag2
(g3
g4
Ntp5140
Rp5141
(dp5142
g8
F41.24390243902439
sg9
F1.2195121951219514
sg10
I2
sg11
F101534.14766924553
sbag2
(g3
g4
Ntp5143
Rp5144
(dp5145
g8
F41.24390243902439
sg9
F1.5853658536585362
sg10
I2
sg11
F101521.90892615238
sbag2
(g3
g4
Ntp5146
Rp5147
(dp5148
g8
F41.24390243902439
sg9
F1.951219512195122
sg10
I2
sg11
F101506.88829445864
sbag2
(g3
g4
Ntp5149
Rp5150
(dp5151
g8
F41.24390243902439
sg9
F2.3170731707317067
sg10
I2
sg11
F101490.48273126611
sbag2
(g3
g4
Ntp5152
Rp5153
(dp5154
g8
F41.24390243902439
sg9
F2.6829268292682924
sg10
I2
sg11
F101474.37516642181
sbag2
(g3
g4
Ntp5155
Rp5156
(dp5157
g8
F41.24390243902439
sg9
F3.048780487804878
sg10
I2
sg11
F101459.42715684074
sbag2
(g3
g4
Ntp5158
Rp5159
(dp5160
g8
F41.24390243902439
sg9
F3.414634146341463
sg10
I2
sg11
F101445.06892916768
sbag2
(g3
g4
Ntp5161
Rp5162
(dp5163
g8
F41.24390243902439
sg9
F3.7804878048780495
sg10
I2
sg11
F101430.12237901319
sbag2
(g3
g4
Ntp5164
Rp5165
(dp5166
g8
F41.24390243902439
sg9
F4.146341463414634
sg10
I2
sg11
F101413.9757777208
sbag2
(g3
g4
Ntp5167
Rp5168
(dp5169
g8
F41.24390243902439
sg9
F4.512195121951219
sg10
I2
sg11
F101396.8849271798
sbag2
(g3
g4
Ntp5170
Rp5171
(dp5172
g8
F41.24390243902439
sg9
F4.878048780487804
sg10
I2
sg11
F101379.7707982058
sbag2
(g3
g4
Ntp5173
Rp5174
(dp5175
g8
F41.24390243902439
sg9
F5.2439024390243905
sg10
I2
sg11
F101364.0205097399
sbag2
(g3
g4
Ntp5176
Rp5177
(dp5178
g8
F41.24390243902439
sg9
F5.609756097560975
sg10
I2
sg11
F101351.20873533128
sbag2
(g3
g4
Ntp5179
Rp5180
(dp5181
g8
F41.24390243902439
sg9
F5.97560975609756
sg10
I2
sg11
F101342.50394551283
sbag2
(g3
g4
Ntp5182
Rp5183
(dp5184
g8
F41.24390243902439
sg9
F6.341463414634147
sg10
I2
sg11
F101337.8324138942
sbag2
(g3
g4
Ntp5185
Rp5186
(dp5187
g8
F41.24390243902439
sg9
F6.7073170731707314
sg10
I2
sg11
F101335.4975654176
sbag2
(g3
g4
Ntp5188
Rp5189
(dp5190
g8
F41.24390243902439
sg9
F7.073170731707316
sg10
I2
sg11
F101332.7407547919
sbag2
(g3
g4
Ntp5191
Rp5192
(dp5193
g8
F41.24390243902439
sg9
F7.439024390243903
sg10
I2
sg11
F101326.67309561567
sbag2
(g3
g4
Ntp5194
Rp5195
(dp5196
g8
F41.24390243902439
sg9
F7.804878048780488
sg10
I2
sg11
F101315.18845360629
sbag2
(g3
g4
Ntp5197
Rp5198
(dp5199
g8
F41.24390243902439
sg9
F8.170731707317072
sg10
I2
sg11
F101298.76158258345
sbag2
(g3
g4
Ntp5200
Rp5201
(dp5202
g8
F41.24390243902439
sg9
F8.536585365853659
sg10
I2
sg11
F101283.40273885723
sbag2
(g3
g4
Ntp5203
Rp5204
(dp5205
g8
F41.24390243902439
sg9
F8.902439024390244
sg10
I2
sg11
F101278.83795589322
sbag2
(g3
g4
Ntp5206
Rp5207
(dp5208
g8
F41.24390243902439
sg9
F9.268292682926829
sg10
I2
sg11
F101286.48285955988
sbag2
(g3
g4
Ntp5209
Rp5210
(dp5211
g8
F41.24390243902439
sg9
F9.634146341463413
sg10
I2
sg11
F101298.7112519712
sbag2
(g3
g4
Ntp5212
Rp5213
(dp5214
g8
F41.24390243902439
sg9
F10.0
sg10
I2
sg11
F101311.82975052329
sbaa(lp5215
g2
(g3
g4
Ntp5216
Rp5217
(dp5218
g8
F41.0
sg9
F-5.0
sg10
I2
sg11
F101527.8891997752
sbag2
(g3
g4
Ntp5219
Rp5220
(dp5221
g8
F41.0
sg9
F-4.634146341463414
sg10
I2
sg11
F101529.0668665666
sbag2
(g3
g4
Ntp5222
Rp5223
(dp5224
g8
F41.0
sg9
F-4.2682926829268295
sg10
I2
sg11
F101530.36775723596
sbag2
(g3
g4
Ntp5225
Rp5226
(dp5227
g8
F41.0
sg9
F-3.902439024390244
sg10
I2
sg11
F101531.80125065034
sbag2
(g3
g4
Ntp5228
Rp5229
(dp5230
g8
F41.0
sg9
F-3.5365853658536586
sg10
I2
sg11
F101533.37572632688
sbag2
(g3
g4
Ntp5231
Rp5232
(dp5233
g8
F41.0
sg9
F-3.1707317073170733
sg10
I2
sg11
F101535.09677402223
sbag2
(g3
g4
Ntp5234
Rp5235
(dp5236
g8
F41.0
sg9
F-2.8048780487804876
sg10
I2
sg11
F101536.96367934352
sbag2
(g3
g4
Ntp5237
Rp5238
(dp5239
g8
F41.0
sg9
F-2.4390243902439024
sg10
I2
sg11
F101538.96297413755
sbag2
(g3
g4
Ntp5240
Rp5241
(dp5242
g8
F41.0
sg9
F-2.073170731707317
sg10
I2
sg11
F101541.05739460005
sbag2
(g3
g4
Ntp5243
Rp5244
(dp5245
g8
F41.0
sg9
F-1.707317073170732
sg10
I2
sg11
F101543.16855596792
sbag2
(g3
g4
Ntp5246
Rp5247
(dp5248
g8
F41.0
sg9
F-1.3414634146341466
sg10
I2
sg11
F101545.15328859963
sbag2
(g3
g4
Ntp5249
Rp5250
(dp5251
g8
F41.0
sg9
F-0.975609756097561
sg10
I2
sg11
F101546.77929459127
sbag2
(g3
g4
Ntp5252
Rp5253
(dp5254
g8
F41.0
sg9
F-0.6097560975609753
sg10
I2
sg11
F101547.71645815155
sbag2
(g3
g4
Ntp5255
Rp5256
(dp5257
g8
F41.0
sg9
F-0.24390243902439046
sg10
I2
sg11
F101547.56526442728
sbag2
(g3
g4
Ntp5258
Rp5259
(dp5260
g8
F41.0
sg9
F0.12195121951219523
sg10
I2
sg11
F101545.9178117714
sbag2
(g3
g4
Ntp5261
Rp5262
(dp5263
g8
F41.0
sg9
F0.48780487804878003
sg10
I2
sg11
F101542.39773920587
sbag2
(g3
g4
Ntp5264
Rp5265
(dp5266
g8
F41.0
sg9
F0.8536585365853657
sg10
I2
sg11
F101536.65034707989
sbag2
(g3
g4
Ntp5267
Rp5268
(dp5269
g8
F41.0
sg9
F1.2195121951219514
sg10
I2
sg11
F101528.38260238907
sbag2
(g3
g4
Ntp5270
Rp5271
(dp5272
g8
F41.0
sg9
F1.5853658536585362
sg10
I2
sg11
F101517.55770938576
sbag2
(g3
g4
Ntp5273
Rp5274
(dp5275
g8
F41.0
sg9
F1.951219512195122
sg10
I2
sg11
F101504.62257440297
sbag2
(g3
g4
Ntp5276
Rp5277
(dp5278
g8
F41.0
sg9
F2.3170731707317067
sg10
I2
sg11
F101490.50357443294
sbag2
(g3
g4
Ntp5279
Rp5280
(dp5281
g8
F41.0
sg9
F2.6829268292682924
sg10
I2
sg11
F101476.2295816075
sbag2
(g3
g4
Ntp5282
Rp5283
(dp5284
g8
F41.0
sg9
F3.048780487804878
sg10
I2
sg11
F101462.34544240759
sbag2
(g3
g4
Ntp5285
Rp5286
(dp5287
g8
F41.0
sg9
F3.414634146341463
sg10
I2
sg11
F101448.64594306191
sbag2
(g3
g4
Ntp5288
Rp5289
(dp5290
g8
F41.0
sg9
F3.7804878048780495
sg10
I2
sg11
F101434.5737212061
sbag2
(g3
g4
Ntp5291
Rp5292
(dp5293
g8
F41.0
sg9
F4.146341463414634
sg10
I2
sg11
F101419.82851049486
sbag2
(g3
g4
Ntp5294
Rp5295
(dp5296
g8
F41.0
sg9
F4.512195121951219
sg10
I2
sg11
F101404.62987414187
sbag2
(g3
g4
Ntp5297
Rp5298
(dp5299
g8
F41.0
sg9
F4.878048780487804
sg10
I2
sg11
F101389.6659836504
sbag2
(g3
g4
Ntp5300
Rp5301
(dp5302
g8
F41.0
sg9
F5.2439024390243905
sg10
I2
sg11
F101375.93347801277
sbag2
(g3
g4
Ntp5303
Rp5304
(dp5305
g8
F41.0
sg9
F5.609756097560975
sg10
I2
sg11
F101364.4772452176
sbag2
(g3
g4
Ntp5306
Rp5307
(dp5308
g8
F41.0
sg9
F5.97560975609756
sg10
I2
sg11
F101355.96963288456
sbag2
(g3
g4
Ntp5309
Rp5310
(dp5311
g8
F41.0
sg9
F6.341463414634147
sg10
I2
sg11
F101350.23817217529
sbag2
(g3
g4
Ntp5312
Rp5313
(dp5314
g8
F41.0
sg9
F6.7073170731707314
sg10
I2
sg11
F101346.08407145849
sbag2
(g3
g4
Ntp5315
Rp5316
(dp5317
g8
F41.0
sg9
F7.073170731707316
sg10
I2
sg11
F101341.59960767781
sbag2
(g3
g4
Ntp5318
Rp5319
(dp5320
g8
F41.0
sg9
F7.439024390243903
sg10
I2
sg11
F101334.79889635465
sbag2
(g3
g4
Ntp5321
Rp5322
(dp5323
g8
F41.0
sg9
F7.804878048780488
sg10
I2
sg11
F101324.46314511297
sbag2
(g3
g4
Ntp5324
Rp5325
(dp5326
g8
F41.0
sg9
F8.170731707317072
sg10
I2
sg11
F101311.49374573784
sbag2
(g3
g4
Ntp5327
Rp5328
(dp5329
g8
F41.0
sg9
F8.536585365853659
sg10
I2
sg11
F101300.20420865627
sbag2
(g3
g4
Ntp5330
Rp5331
(dp5332
g8
F41.0
sg9
F8.902439024390244
sg10
I2
sg11
F101296.27779256497
sbag2
(g3
g4
Ntp5333
Rp5334
(dp5335
g8
F41.0
sg9
F9.268292682926829
sg10
I2
sg11
F101300.8355054013
sbag2
(g3
g4
Ntp5336
Rp5337
(dp5338
g8
F41.0
sg9
F9.634146341463413
sg10
I2
sg11
F101310.16039909888
sbag2
(g3
g4
Ntp5339
Rp5340
(dp5341
g8
F41.0
sg9
F10.0
sg10
I2
sg11
F101321.37545836053
sbaa.