(lp0
(lp1
ccopy_reg
_reconstructor
p2
(clibPoint
Point_C
p3
c__builtin__
object
p4
Ntp5
Rp6
(dp7
S'y'
p8
F-5.0
sS'x'
p9
F51.0
sS'mu'
p10
I1
sS'val'
p11
F88.88509709791143
sbag2
(g3
g4
Ntp12
Rp13
(dp14
g8
F-5.0
sg9
F49.42857142857143
sg10
I1
sg11
F88.88354981317377
sbag2
(g3
g4
Ntp15
Rp16
(dp17
g8
F-5.0
sg9
F47.857142857142854
sg10
I1
sg11
F88.88193115438375
sbag2
(g3
g4
Ntp18
Rp19
(dp20
g8
F-5.0
sg9
F46.285714285714285
sg10
I1
sg11
F88.88023972793093
sbag2
(g3
g4
Ntp21
Rp22
(dp23
g8
F-5.0
sg9
F44.714285714285715
sg10
I1
sg11
F88.87847444403278
sbag2
(g3
g4
Ntp24
Rp25
(dp26
g8
F-5.0
sg9
F43.142857142857146
sg10
I1
sg11
F88.87663457641564
sbag2
(g3
g4
Ntp27
Rp28
(dp29
g8
F-5.0
sg9
F41.57142857142857
sg10
I1
sg11
F88.87471982699877
sbag2
(g3
g4
Ntp30
Rp31
(dp32
g8
F-5.0
sg9
F40.0
sg10
I1
sg11
F88.87273039508219
sbaa(lp33
g2
(g3
g4
Ntp34
Rp35
(dp36
g8
F-2.857142857142857
sg9
F51.0
sg10
I1
sg11
F88.88621197458524
sbag2
(g3
g4
Ntp37
Rp38
(dp39
g8
F-2.857142857142857
sg9
F49.42857142857143
sg10
I1
sg11
F88.88462630415708
sbag2
(g3
g4
Ntp40
Rp41
(dp42
g8
F-2.857142857142857
sg9
F47.857142857142854
sg10
I1
sg11
F88.88296219243077
sbag2
(g3
g4
Ntp43
Rp44
(dp45
g8
F-2.857142857142857
sg9
F46.285714285714285
sg10
I1
sg11
F88.88121764747733
sbag2
(g3
g4
Ntp46
Rp47
(dp48
g8
F-2.857142857142857
sg9
F44.714285714285715
sg10
I1
sg11
F88.87939097194932
sbag2
(g3
g4
Ntp49
Rp50
(dp51
g8
F-2.857142857142857
sg9
F43.142857142857146
sg10
I1
sg11
F88.87748083162577
sbag2
(g3
g4
Ntp52
Rp53
(dp54
g8
F-2.857142857142857
sg9
F41.57142857142857
sg10
I1
sg11
F88.87548633101866
sbag2
(g3
g4
Ntp55
Rp56
(dp57
g8
F-2.857142857142857
sg9
F40.0
sg10
I1
sg11
F88.87340709571093
sbaa(lp58
g2
(g3
g4
Ntp59
Rp60
(dp61
g8
F-0.7142857142857144
sg9
F51.0
sg10
I1
sg11
F88.88746820388582
sbag2
(g3
g4
Ntp62
Rp63
(dp64
g8
F-0.7142857142857144
sg9
F49.42857142857143
sg10
I1
sg11
F88.8858482739475
sbag2
(g3
g4
Ntp65
Rp66
(dp67
g8
F-0.7142857142857144
sg9
F47.857142857142854
sg10
I1
sg11
F88.88414240136518
sbag2
(g3
g4
Ntp68
Rp69
(dp70
g8
F-0.7142857142857144
sg9
F46.285714285714285
sg10
I1
sg11
F88.88234788133025
sbag2
(g3
g4
Ntp71
Rp72
(dp73
g8
F-0.7142857142857144
sg9
F44.714285714285715
sg10
I1
sg11
F88.88046228099134
sbag2
(g3
g4
Ntp74
Rp75
(dp76
g8
F-0.7142857142857144
sg9
F43.142857142857146
sg10
I1
sg11
F88.87848351695186
sbag2
(g3
g4
Ntp77
Rp78
(dp79
g8
F-0.7142857142857144
sg9
F41.57142857142857
sg10
I1
sg11
F88.8764099423801
sbag2
(g3
g4
Ntp80
Rp81
(dp82
g8
F-0.7142857142857144
sg9
F40.0
sg10
I1
sg11
F88.87424044370071
sbaa(lp83
g2
(g3
g4
Ntp84
Rp85
(dp86
g8
F1.4285714285714288
sg9
F51.0
sg10
I1
sg11
F88.88887843818964
sbag2
(g3
g4
Ntp87
Rp88
(dp89
g8
F1.4285714285714288
sg9
F49.42857142857143
sg10
I1
sg11
F88.88722964621186
sbag2
(g3
g4
Ntp90
Rp91
(dp92
g8
F1.4285714285714288
sg9
F47.857142857142854
sg10
I1
sg11
F88.88548703113537
sbag2
(g3
g4
Ntp93
Rp94
(dp95
g8
F1.4285714285714288
sg9
F46.285714285714285
sg10
I1
sg11
F88.8836470482674
sbag2
(g3
g4
Ntp96
Rp97
(dp98
g8
F1.4285714285714288
sg9
F44.714285714285715
sg10
I1
sg11
F88.88170638469748
sbag2
(g3
g4
Ntp99
Rp100
(dp101
g8
F1.4285714285714288
sg9
F43.142857142857146
sg10
I1
sg11
F88.87966204523825
sbag2
(g3
g4
Ntp102
Rp103
(dp104
g8
F1.4285714285714288
sg9
F41.57142857142857
sg10
I1
sg11
F88.87751145105258
sbag2
(g3
g4
Ntp105
Rp106
(dp107
g8
F1.4285714285714288
sg9
F40.0
sg10
I1
sg11
F88.87525255140918
sbaa(lp108
g2
(g3
g4
Ntp109
Rp110
(dp111
g8
F3.571428571428571
sg9
F51.0
sg10
I1
sg11
F88.89045582671834
sbag2
(g3
g4
Ntp112
Rp113
(dp114
g8
F3.571428571428571
sg9
F49.42857142857143
sg10
I1
sg11
F88.8887850465508
sbag2
(g3
g4
Ntp115
Rp116
(dp117
g8
F3.571428571428571
sg9
F47.857142857142854
sg10
I1
sg11
F88.8870122698285
sbag2
(g3
g4
Ntp118
Rp119
(dp120
g8
F3.571428571428571
sg9
F46.285714285714285
sg10
I1
sg11
F88.8851329742137
sbag2
(g3
g4
Ntp121
Rp122
(dp123
g8
F3.571428571428571
sg9
F44.714285714285715
sg10
I1
sg11
F88.88314280656414
sbag2
(g3
g4
Ntp124
Rp125
(dp126
g8
F3.571428571428571
sg9
F43.142857142857146
sg10
I1
sg11
F88.8810376759289
sbag2
(g3
g4
Ntp127
Rp128
(dp129
g8
F3.571428571428571
sg9
F41.57142857142857
sg10
I1
sg11
F88.87881386281204
sbag2
(g3
g4
Ntp130
Rp131
(dp132
g8
F3.571428571428571
sg9
F40.0
sg10
I1
sg11
F88.87646814584447
sbaa(lp133
g2
(g3
g4
Ntp134
Rp135
(dp136
g8
F5.7142857142857135
sg9
F51.0
sg10
I1
sg11
F88.89221384260543
sbag2
(g3
g4
Ntp137
Rp138
(dp139
g8
F5.7142857142857135
sg9
F49.42857142857143
sg10
I1
sg11
F88.89052964194143
sbag2
(g3
g4
Ntp140
Rp141
(dp142
g8
F5.7142857142857135
sg9
F47.857142857142854
sg10
I1
sg11
F88.8887351029929
sbag2
(g3
g4
Ntp143
Rp144
(dp145
g8
F5.7142857142857135
sg9
F46.285714285714285
sg10
I1
sg11
F88.88682458049831
sbag2
(g3
g4
Ntp146
Rp147
(dp148
g8
F5.7142857142857135
sg9
F44.714285714285715
sg10
I1
sg11
F88.88479250794259
sbag2
(g3
g4
Ntp149
Rp150
(dp151
g8
F5.7142857142857135
sg9
F43.142857142857146
sg10
I1
sg11
F88.88263349499714
sbag2
(g3
g4
Ntp152
Rp153
(dp154
g8
F5.7142857142857135
sg9
F41.57142857142857
sg10
I1
sg11
F88.88034244522456
sbag2
(g3
g4
Ntp155
Rp156
(dp157
g8
F5.7142857142857135
sg9
F40.0
sg10
I1
sg11
F88.87791469616099
sbaa(lp158
g2
(g3
g4
Ntp159
Rp160
(dp161
g8
F7.857142857142858
sg9
F51.0
sg10
I1
sg11
F88.89416604488258
sbag2
(g3
g4
Ntp162
Rp163
(dp164
g8
F7.857142857142858
sg9
F49.42857142857143
sg10
I1
sg11
F88.89247890845168
sbag2
(g3
g4
Ntp165
Rp166
(dp167
g8
F7.857142857142858
sg9
F47.857142857142854
sg10
I1
sg11
F88.89067309515963
sbag2
(g3
g4
Ntp168
Rp169
(dp170
g8
F7.857142857142858
sg9
F46.285714285714285
sg10
I1
sg11
F88.88874168931996
sbag2
(g3
g4
Ntp171
Rp172
(dp173
g8
F7.857142857142858
sg9
F44.714285714285715
sg10
I1
sg11
F88.88667772987688
sbag2
(g3
g4
Ntp174
Rp175
(dp176
g8
F7.857142857142858
sg9
F43.142857142857146
sg10
I1
sg11
F88.88447430805935
sbag2
(g3
g4
Ntp177
Rp178
(dp179
g8
F7.857142857142858
sg9
F41.57142857142857
sg10
I1
sg11
F88.8821246895017
sbag2
(g3
g4
Ntp180
Rp181
(dp182
g8
F7.857142857142858
sg9
F40.0
sg10
I1
sg11
F88.87962246422954
sbaa(lp183
g2
(g3
g4
Ntp184
Rp185
(dp186
g8
F10.0
sg9
F51.0
sg10
I1
sg11
F88.8963257638141
sbag2
(g3
g4
Ntp187
Rp188
(dp189
g8
F10.0
sg9
F49.42857142857143
sg10
I1
sg11
F88.89464831231608
sbag2
(g3
g4
Ntp190
Rp191
(dp192
g8
F10.0
sg9
F47.857142857142854
sg10
I1
sg11
F88.89284407482994
sbag2
(g3
g4
Ntp193
Rp194
(dp195
g8
F10.0
sg9
F46.285714285714285
sg10
I1
sg11
F88.89090472341856
sbag2
(g3
g4
Ntp196
Rp197
(dp198
g8
F10.0
sg9
F44.714285714285715
sg10
I1
sg11
F88.88882172126203
sbag2
(g3
g4
Ntp199
Rp200
(dp201
g8
F10.0
sg9
F43.142857142857146
sg10
I1
sg11
F88.88658641425693
sbag2
(g3
g4
Ntp202
Rp203
(dp204
g8
F10.0
sg9
F41.57142857142857
sg10
I1
sg11
F88.8841901511079
sbag2
(g3
g4
Ntp205
Rp206
(dp207
g8
F10.0
sg9
F40.0
sg10
I1
sg11
F88.88162443693311
sbaa.