(lp0
(lp1
ccopy_reg
_reconstructor
p2
(clibPoint
Point_C
p3
c__builtin__
object
p4
Ntp5
Rp6
(dp7
S'y'
p8
F51.0
sS'x'
p9
F-5.0
sS'mu'
p10
I5
sS'val'
p11
F100346.76085542105
sbag2
(g3
g4
Ntp12
Rp13
(dp14
g8
F51.0
sg9
F-3.6363636363636367
sg10
I3
sg11
F100508.34304994516
sbag2
(g3
g4
Ntp15
Rp16
(dp17
g8
F51.0
sg9
F-2.272727272727273
sg10
I3
sg11
F100737.2187462608
sbag2
(g3
g4
Ntp18
Rp19
(dp20
g8
F51.0
sg9
F-0.9090909090909092
sg10
I3
sg11
F100484.38054194146
sbag2
(g3
g4
Ntp21
Rp22
(dp23
g8
F51.0
sg9
F0.45454545454545414
sg10
I2
sg11
F100183.37729949011
sbag2
(g3
g4
Ntp24
Rp25
(dp26
g8
F51.0
sg9
F1.8181818181818175
sg10
I3
sg11
F100552.86856573321
sbag2
(g3
g4
Ntp27
Rp28
(dp29
g8
F51.0
sg9
F3.1818181818181817
sg10
I3
sg11
F100979.0085232397
sbag2
(g3
g4
Ntp30
Rp31
(dp32
g8
F51.0
sg9
F4.545454545454545
sg10
I2
sg11
F100282.72748864
sbag2
(g3
g4
Ntp33
Rp34
(dp35
g8
F51.0
sg9
F5.909090909090908
sg10
I4
sg11
F99615.50386653637
sbag2
(g3
g4
Ntp36
Rp37
(dp38
g8
F51.0
sg9
F7.272727272727272
sg10
I4
sg11
F99498.25652947131
sbag2
(g3
g4
Ntp39
Rp40
(dp41
g8
F51.0
sg9
F8.636363636363635
sg10
I4
sg11
F99572.27900897003
sbag2
(g3
g4
Ntp42
Rp43
(dp44
g8
F51.0
sg9
F10.0
sg10
I2
sg11
F99632.98135718852
sbaa(lp45
g2
(g3
g4
Ntp46
Rp47
(dp48
g8
F50.09090909090909
sg9
F-5.0
sg10
I5
sg11
F100410.34233447365
sbag2
(g3
g4
Ntp49
Rp50
(dp51
g8
F50.09090909090909
sg9
F-3.6363636363636367
sg10
I5
sg11
F100619.43578424379
sbag2
(g3
g4
Ntp52
Rp53
(dp54
g8
F50.09090909090909
sg9
F-2.272727272727273
sg10
I2
sg11
F101186.51512599872
sbag2
(g3
g4
Ntp55
Rp56
(dp57
g8
F50.09090909090909
sg9
F-0.9090909090909092
sg10
I3
sg11
F100683.0067405077
sbag2
(g3
g4
Ntp58
Rp59
(dp60
g8
F50.09090909090909
sg9
F0.45454545454545414
sg10
I2
sg11
F100128.59761001264
sbag2
(g3
g4
Ntp61
Rp62
(dp63
g8
F50.09090909090909
sg9
F1.8181818181818175
sg10
I4
sg11
F100699.9996297469
sbag2
(g3
g4
Ntp64
Rp65
(dp66
g8
F50.09090909090909
sg9
F3.1818181818181817
sg10
I4
sg11
F100909.12243811922
sbag2
(g3
g4
Ntp67
Rp68
(dp69
g8
F50.09090909090909
sg9
F4.545454545454545
sg10
I5
sg11
F100263.31539070584
sbag2
(g3
g4
Ntp70
Rp71
(dp72
g8
F50.09090909090909
sg9
F5.909090909090908
sg10
I2
sg11
F98992.1445699261
sbag2
(g3
g4
Ntp73
Rp74
(dp75
g8
F50.09090909090909
sg9
F7.272727272727272
sg10
I5
sg11
F99332.6579508461
sbag2
(g3
g4
Ntp76
Rp77
(dp78
g8
F50.09090909090909
sg9
F8.636363636363635
sg10
I2
sg11
F99552.51482026253
sbag2
(g3
g4
Ntp79
Rp80
(dp81
g8
F50.09090909090909
sg9
F10.0
sg10
I4
sg11
F99621.34295289741
sbaa(lp82
g2
(g3
g4
Ntp83
Rp84
(dp85
g8
F49.18181818181818
sg9
F-5.0
sg10
I4
sg11
F100384.59930376105
sbag2
(g3
g4
Ntp86
Rp87
(dp88
g8
F49.18181818181818
sg9
F-3.6363636363636367
sg10
I3
sg11
F100699.01370437062
sbag2
(g3
g4
Ntp89
Rp90
(dp91
g8
F49.18181818181818
sg9
F-2.272727272727273
sg10
I2
sg11
F101052.88559802275
sbag2
(g3
g4
Ntp92
Rp93
(dp94
g8
F49.18181818181818
sg9
F-0.9090909090909092
sg10
I2
sg11
F100638.90350411925
sbag2
(g3
g4
Ntp95
Rp96
(dp97
g8
F49.18181818181818
sg9
F0.45454545454545414
sg10
I2
sg11
F99943.40081244856
sbag2
(g3
g4
Ntp98
Rp99
(dp100
g8
F49.18181818181818
sg9
F1.8181818181818175
sg10
I4
sg11
F100184.26108387887
sbag2
(g3
g4
Ntp101
Rp102
(dp103
g8
F49.18181818181818
sg9
F3.1818181818181817
sg10
I4
sg11
F100290.2783153549
sbag2
(g3
g4
Ntp104
Rp105
(dp106
g8
F49.18181818181818
sg9
F4.545454545454545
sg10
I3
sg11
F100418.19122135425
sbag2
(g3
g4
Ntp107
Rp108
(dp109
g8
F49.18181818181818
sg9
F5.909090909090908
sg10
I3
sg11
F97605.64896657213
sbag2
(g3
g4
Ntp110
Rp111
(dp112
g8
F49.18181818181818
sg9
F7.272727272727272
sg10
I3
sg11
F99613.34707188132
sbag2
(g3
g4
Ntp113
Rp114
(dp115
g8
F49.18181818181818
sg9
F8.636363636363635
sg10
I3
sg11
F99623.2151924764
sbag2
(g3
g4
Ntp116
Rp117
(dp118
g8
F49.18181818181818
sg9
F10.0
sg10
I4
sg11
F99616.46046275625
sbaa(lp119
g2
(g3
g4
Ntp120
Rp121
(dp122
g8
F48.27272727272727
sg9
F-5.0
sg10
I5
sg11
F100341.07981712172
sbag2
(g3
g4
Ntp123
Rp124
(dp125
g8
F48.27272727272727
sg9
F-3.6363636363636367
sg10
I3
sg11
F100632.71311464655
sbag2
(g3
g4
Ntp126
Rp127
(dp128
g8
F48.27272727272727
sg9
F-2.272727272727273
sg10
I3
sg11
F100913.23370232616
sbag2
(g3
g4
Ntp129
Rp130
(dp131
g8
F48.27272727272727
sg9
F-0.9090909090909092
sg10
I5
sg11
F100560.44144242801
sbag2
(g3
g4
Ntp132
Rp133
(dp134
g8
F48.27272727272727
sg9
F0.45454545454545414
sg10
I5
sg11
F99740.84533109164
sbag2
(g3
g4
Ntp135
Rp136
(dp137
g8
F48.27272727272727
sg9
F1.8181818181818175
sg10
I4
sg11
F100109.7012008039
sbag2
(g3
g4
Ntp138
Rp139
(dp140
g8
F48.27272727272727
sg9
F3.1818181818181817
sg10
I5
sg11
F100073.73465438571
sbag2
(g3
g4
Ntp141
Rp142
(dp143
g8
F48.27272727272727
sg9
F4.545454545454545
sg10
I2
sg11
F100073.43506364145
sbag2
(g3
g4
Ntp144
Rp145
(dp146
g8
F48.27272727272727
sg9
F5.909090909090908
sg10
I5
sg11
F97467.3801491905
sbag2
(g3
g4
Ntp147
Rp148
(dp149
g8
F48.27272727272727
sg9
F7.272727272727272
sg10
I5
sg11
F99461.51459217668
sbag2
(g3
g4
Ntp150
Rp151
(dp152
g8
F48.27272727272727
sg9
F8.636363636363635
sg10
I4
sg11
F99439.69431873679
sbag2
(g3
g4
Ntp153
Rp154
(dp155
g8
F48.27272727272727
sg9
F10.0
sg10
I4
sg11
F99618.72465244567
sbaa(lp156
g2
(g3
g4
Ntp157
Rp158
(dp159
g8
F47.36363636363637
sg9
F-5.0
sg10
I5
sg11
F100422.5852405965
sbag2
(g3
g4
Ntp160
Rp161
(dp162
g8
F47.36363636363637
sg9
F-3.6363636363636367
sg10
I2
sg11
F100887.78308602006
sbag2
(g3
g4
Ntp163
Rp164
(dp165
g8
F47.36363636363637
sg9
F-2.272727272727273
sg10
I5
sg11
F100924.809690021
sbag2
(g3
g4
Ntp166
Rp167
(dp168
g8
F47.36363636363637
sg9
F-0.9090909090909092
sg10
I5
sg11
F100706.77258501704
sbag2
(g3
g4
Ntp169
Rp170
(dp171
g8
F47.36363636363637
sg9
F0.45454545454545414
sg10
I2
sg11
F100128.21607038914
sbag2
(g3
g4
Ntp172
Rp173
(dp174
g8
F47.36363636363637
sg9
F1.8181818181818175
sg10
I5
sg11
F99562.40773249188
sbag2
(g3
g4
Ntp175
Rp176
(dp177
g8
F47.36363636363637
sg9
F3.1818181818181817
sg10
I5
sg11
F99475.07986754413
sbag2
(g3
g4
Ntp178
Rp179
(dp180
g8
F47.36363636363637
sg9
F4.545454545454545
sg10
I4
sg11
F98984.35487340024
sbag2
(g3
g4
Ntp181
Rp182
(dp183
g8
F47.36363636363637
sg9
F5.909090909090908
sg10
I3
sg11
F98700.77774558746
sbag2
(g3
g4
Ntp184
Rp185
(dp186
g8
F47.36363636363637
sg9
F7.272727272727272
sg10
I5
sg11
F98304.37551303714
sbag2
(g3
g4
Ntp187
Rp188
(dp189
g8
F47.36363636363637
sg9
F8.636363636363635
sg10
I5
sg11
F98876.66488659487
sbag2
(g3
g4
Ntp190
Rp191
(dp192
g8
F47.36363636363637
sg9
F10.0
sg10
I4
sg11
F99678.87287023655
sbaa(lp193
g2
(g3
g4
Ntp194
Rp195
(dp196
g8
F46.45454545454545
sg9
F-5.0
sg10
I5
sg11
F100398.73231911339
sbag2
(g3
g4
Ntp197
Rp198
(dp199
g8
F46.45454545454545
sg9
F-3.6363636363636367
sg10
I3
sg11
F100731.3554899496
sbag2
(g3
g4
Ntp200
Rp201
(dp202
g8
F46.45454545454545
sg9
F-2.272727272727273
sg10
I3
sg11
F100905.21133150056
sbag2
(g3
g4
Ntp203
Rp204
(dp205
g8
F46.45454545454545
sg9
F-0.9090909090909092
sg10
I4
sg11
F100866.59299397391
sbag2
(g3
g4
Ntp206
Rp207
(dp208
g8
F46.45454545454545
sg9
F0.45454545454545414
sg10
I2
sg11
F100068.91868695695
sbag2
(g3
g4
Ntp209
Rp210
(dp211
g8
F46.45454545454545
sg9
F1.8181818181818175
sg10
I3
sg11
F98769.58317799267
sbag2
(g3
g4
Ntp212
Rp213
(dp214
g8
F46.45454545454545
sg9
F3.1818181818181817
sg10
I3
sg11
F97908.16701875858
sbag2
(g3
g4
Ntp215
Rp216
(dp217
g8
F46.45454545454545
sg9
F4.545454545454545
sg10
I4
sg11
F98651.48818247743
sbag2
(g3
g4
Ntp218
Rp219
(dp220
g8
F46.45454545454545
sg9
F5.909090909090908
sg10
I2
sg11
F98764.22818109868
sbag2
(g3
g4
Ntp221
Rp222
(dp223
g8
F46.45454545454545
sg9
F7.272727272727272
sg10
I5
sg11
F98638.24536935984
sbag2
(g3
g4
Ntp224
Rp225
(dp226
g8
F46.45454545454545
sg9
F8.636363636363635
sg10
I2
sg11
F99261.9177634282
sbag2
(g3
g4
Ntp227
Rp228
(dp229
g8
F46.45454545454545
sg9
F10.0
sg10
I4
sg11
F99856.39798301706
sbaa(lp230
g2
(g3
g4
Ntp231
Rp232
(dp233
g8
F45.54545454545455
sg9
F-5.0
sg10
I4
sg11
F100243.49754468161
sbag2
(g3
g4
Ntp234
Rp235
(dp236
g8
F45.54545454545455
sg9
F-3.6363636363636367
sg10
I5
sg11
F100421.39642700242
sbag2
(g3
g4
Ntp237
Rp238
(dp239
g8
F45.54545454545455
sg9
F-2.272727272727273
sg10
I5
sg11
F100745.37310637887
sbag2
(g3
g4
Ntp240
Rp241
(dp242
g8
F45.54545454545455
sg9
F-0.9090909090909092
sg10
I3
sg11
F100768.1978160709
sbag2
(g3
g4
Ntp243
Rp244
(dp245
g8
F45.54545454545455
sg9
F0.45454545454545414
sg10
I2
sg11
F98703.7194032387
sbag2
(g3
g4
Ntp246
Rp247
(dp248
g8
F45.54545454545455
sg9
F1.8181818181818175
sg10
I4
sg11
F97944.46801380243
sbag2
(g3
g4
Ntp249
Rp250
(dp251
g8
F45.54545454545455
sg9
F3.1818181818181817
sg10
I5
sg11
F97629.53585582858
sbag2
(g3
g4
Ntp252
Rp253
(dp254
g8
F45.54545454545455
sg9
F4.545454545454545
sg10
I4
sg11
F97672.0412146529
sbag2
(g3
g4
Ntp255
Rp256
(dp257
g8
F45.54545454545455
sg9
F5.909090909090908
sg10
I2
sg11
F97660.68921754217
sbag2
(g3
g4
Ntp258
Rp259
(dp260
g8
F45.54545454545455
sg9
F7.272727272727272
sg10
I2
sg11
F96497.89849207328
sbag2
(g3
g4
Ntp261
Rp262
(dp263
g8
F45.54545454545455
sg9
F8.636363636363635
sg10
I2
sg11
F99593.81514182936
sbag2
(g3
g4
Ntp264
Rp265
(dp266
g8
F45.54545454545455
sg9
F10.0
sg10
I4
sg11
F100131.89952336776
sbaa(lp267
g2
(g3
g4
Ntp268
Rp269
(dp270
g8
F44.63636363636364
sg9
F-5.0
sg10
I2
sg11
F100053.89952225969
sbag2
(g3
g4
Ntp271
Rp272
(dp273
g8
F44.63636363636364
sg9
F-3.6363636363636367
sg10
I5
sg11
F100131.07660317584
sbag2
(g3
g4
Ntp274
Rp275
(dp276
g8
F44.63636363636364
sg9
F-2.272727272727273
sg10
I2
sg11
F100255.91648646069
sbag2
(g3
g4
Ntp277
Rp278
(dp279
g8
F44.63636363636364
sg9
F-0.9090909090909092
sg10
I2
sg11
F100751.31843288799
sbag2
(g3
g4
Ntp280
Rp281
(dp282
g8
F44.63636363636364
sg9
F0.45454545454545414
sg10
I2
sg11
F98978.4566436698
sbag2
(g3
g4
Ntp283
Rp284
(dp285
g8
F44.63636363636364
sg9
F1.8181818181818175
sg10
I5
sg11
F98433.9714864159
sbag2
(g3
g4
Ntp286
Rp287
(dp288
g8
F44.63636363636364
sg9
F3.1818181818181817
sg10
I5
sg11
F93272.3868390712
sbag2
(g3
g4
Ntp289
Rp290
(dp291
g8
F44.63636363636364
sg9
F4.545454545454545
sg10
I2
sg11
F100370.72376311064
sbag2
(g3
g4
Ntp292
Rp293
(dp294
g8
F44.63636363636364
sg9
F5.909090909090908
sg10
I5
sg11
F92308.55465204015
sbag2
(g3
g4
Ntp295
Rp296
(dp297
g8
F44.63636363636364
sg9
F7.272727272727272
sg10
I4
sg11
F94001.28134831977
sbag2
(g3
g4
Ntp298
Rp299
(dp300
g8
F44.63636363636364
sg9
F8.636363636363635
sg10
I2
sg11
F100012.50800320813
sbag2
(g3
g4
Ntp301
Rp302
(dp303
g8
F44.63636363636364
sg9
F10.0
sg10
I3
sg11
F100485.13367654684
sbaa(lp304
g2
(g3
g4
Ntp305
Rp306
(dp307
g8
F43.72727272727273
sg9
F-5.0
sg10
I2
sg11
F99867.3714192706
sbag2
(g3
g4
Ntp308
Rp309
(dp310
g8
F43.72727272727273
sg9
F-3.6363636363636367
sg10
I3
sg11
F99847.706080845
sbag2
(g3
g4
Ntp311
Rp312
(dp313
g8
F43.72727272727273
sg9
F-2.272727272727273
sg10
I5
sg11
F99783.52622985521
sbag2
(g3
g4
Ntp314
Rp315
(dp316
g8
F43.72727272727273
sg9
F-0.9090909090909092
sg10
I5
sg11
F100762.31763779922
sbag2
(g3
g4
Ntp317
Rp318
(dp319
g8
F43.72727272727273
sg9
F0.45454545454545414
sg10
I5
sg11
F98490.41307482633
sbag2
(g3
g4
Ntp320
Rp321
(dp322
g8
F43.72727272727273
sg9
F1.8181818181818175
sg10
I3
sg11
F99545.08528945586
sbag2
(g3
g4
Ntp323
Rp324
(dp325
g8
F43.72727272727273
sg9
F3.1818181818181817
sg10
I3
sg11
F93480.26196710981
sbag2
(g3
g4
Ntp326
Rp327
(dp328
g8
F43.72727272727273
sg9
F4.545454545454545
sg10
I4
sg11
F100715.69091048879
sbag2
(g3
g4
Ntp329
Rp330
(dp331
g8
F43.72727272727273
sg9
F5.909090909090908
sg10
I4
sg11
F99221.57796618703
sbag2
(g3
g4
Ntp332
Rp333
(dp334
g8
F43.72727272727273
sg9
F7.272727272727272
sg10
I5
sg11
F100939.39406913788
sbag2
(g3
g4
Ntp335
Rp336
(dp337
g8
F43.72727272727273
sg9
F8.636363636363635
sg10
I4
sg11
F100605.37377142382
sbag2
(g3
g4
Ntp338
Rp339
(dp340
g8
F43.72727272727273
sg9
F10.0
sg10
I5
sg11
F100846.11799264033
sbaa(lp341
g2
(g3
g4
Ntp342
Rp343
(dp344
g8
F42.81818181818182
sg9
F-5.0
sg10
I3
sg11
F99698.84846995761
sbag2
(g3
g4
Ntp345
Rp346
(dp347
g8
F42.81818181818182
sg9
F-3.6363636363636367
sg10
I2
sg11
F99595.07389233743
sbag2
(g3
g4
Ntp348
Rp349
(dp350
g8
F42.81818181818182
sg9
F-2.272727272727273
sg10
I2
sg11
F99319.39675897096
sbag2
(g3
g4
Ntp351
Rp352
(dp353
g8
F42.81818181818182
sg9
F-0.9090909090909092
sg10
I5
sg11
F98578.75243573704
sbag2
(g3
g4
Ntp354
Rp355
(dp356
g8
F42.81818181818182
sg9
F0.45454545454545414
sg10
I4
sg11
F97432.34190727411
sbag2
(g3
g4
Ntp357
Rp358
(dp359
g8
F42.81818181818182
sg9
F1.8181818181818175
sg10
I5
sg11
F98533.38495854946
sbag2
(g3
g4
Ntp360
Rp361
(dp362
g8
F42.81818181818182
sg9
F3.1818181818181817
sg10
I2
sg11
F100838.12161868061
sbag2
(g3
g4
Ntp363
Rp364
(dp365
g8
F42.81818181818182
sg9
F4.545454545454545
sg10
I2
sg11
F100459.05177651365
sbag2
(g3
g4
Ntp366
Rp367
(dp368
g8
F42.81818181818182
sg9
F5.909090909090908
sg10
I2
sg11
F99458.14902228935
sbag2
(g3
g4
Ntp369
Rp370
(dp371
g8
F42.81818181818182
sg9
F7.272727272727272
sg10
I3
sg11
F100561.94179030479
sbag2
(g3
g4
Ntp372
Rp373
(dp374
g8
F42.81818181818182
sg9
F8.636363636363635
sg10
I5
sg11
F101001.36224331593
sbag2
(g3
g4
Ntp375
Rp376
(dp377
g8
F42.81818181818182
sg9
F10.0
sg10
I2
sg11
F101055.15678699155
sbaa(lp378
g2
(g3
g4
Ntp379
Rp380
(dp381
g8
F41.90909090909091
sg9
F-5.0
sg10
I4
sg11
F99558.99297537972
sbag2
(g3
g4
Ntp382
Rp383
(dp384
g8
F41.90909090909091
sg9
F-3.6363636363636367
sg10
I3
sg11
F99404.29320007244
sbag2
(g3
g4
Ntp385
Rp386
(dp387
g8
F41.90909090909091
sg9
F-2.272727272727273
sg10
I5
sg11
F99057.3936181995
sbag2
(g3
g4
Ntp388
Rp389
(dp390
g8
F41.90909090909091
sg9
F-0.9090909090909092
sg10
I3
sg11
F98339.82263335714
sbag2
(g3
g4
Ntp391
Rp392
(dp393
g8
F41.90909090909091
sg9
F0.45454545454545414
sg10
I2
sg11
F97728.6460321378
sbag2
(g3
g4
Ntp394
Rp395
(dp396
g8
F41.90909090909091
sg9
F1.8181818181818175
sg10
I5
sg11
F98343.27516497778
sbag2
(g3
g4
Ntp397
Rp398
(dp399
g8
F41.90909090909091
sg9
F3.1818181818181817
sg10
I2
sg11
F100308.86230811253
sbag2
(g3
g4
Ntp400
Rp401
(dp402
g8
F41.90909090909091
sg9
F4.545454545454545
sg10
I4
sg11
F99726.44394137786
sbag2
(g3
g4
Ntp403
Rp404
(dp405
g8
F41.90909090909091
sg9
F5.909090909090908
sg10
I4
sg11
F99691.30764370467
sbag2
(g3
g4
Ntp406
Rp407
(dp408
g8
F41.90909090909091
sg9
F7.272727272727272
sg10
I5
sg11
F100383.44144431652
sbag2
(g3
g4
Ntp409
Rp410
(dp411
g8
F41.90909090909091
sg9
F8.636363636363635
sg10
I5
sg11
F101129.83283375356
sbag2
(g3
g4
Ntp412
Rp413
(dp414
g8
F41.90909090909091
sg9
F10.0
sg10
I2
sg11
F101036.76718024127
sbaa(lp415
g2
(g3
g4
Ntp416
Rp417
(dp418
g8
F41.0
sg9
F-5.0
sg10
I2
sg11
F99453.05674916354
sbag2
(g3
g4
Ntp419
Rp420
(dp421
g8
F41.0
sg9
F-3.6363636363636367
sg10
I2
sg11
F99283.95067777415
sbag2
(g3
g4
Ntp422
Rp423
(dp424
g8
F41.0
sg9
F-2.272727272727273
sg10
I4
sg11
F98974.51262118244
sbag2
(g3
g4
Ntp425
Rp426
(dp427
g8
F41.0
sg9
F-0.9090909090909092
sg10
I4
sg11
F98503.64798741283
sbag2
(g3
g4
Ntp428
Rp429
(dp430
g8
F41.0
sg9
F0.45454545454545414
sg10
I4
sg11
F98127.48255200117
sbag2
(g3
g4
Ntp431
Rp432
(dp433
g8
F41.0
sg9
F1.8181818181818175
sg10
I4
sg11
F98298.66181014688
sbag2
(g3
g4
Ntp434
Rp435
(dp436
g8
F41.0
sg9
F3.1818181818181817
sg10
I4
sg11
F98963.28758332174
sbag2
(g3
g4
Ntp437
Rp438
(dp439
g8
F41.0
sg9
F4.545454545454545
sg10
I3
sg11
F99329.71602480761
sbag2
(g3
g4
Ntp440
Rp441
(dp442
g8
F41.0
sg9
F5.909090909090908
sg10
I3
sg11
F99691.62253918727
sbag2
(g3
g4
Ntp443
Rp444
(dp445
g8
F41.0
sg9
F7.272727272727272
sg10
I4
sg11
F100344.88492743802
sbag2
(g3
g4
Ntp446
Rp447
(dp448
g8
F41.0
sg9
F8.636363636363635
sg10
I3
sg11
F101009.19132583495
sbag2
(g3
g4
Ntp449
Rp450
(dp451
g8
F41.0
sg9
F10.0
sg10
I2
sg11
F100893.66186768579
sbaa.