(lp0
(lp1
ccopy_reg
_reconstructor
p2
(clibPoint
Point_C
p3
c__builtin__
object
p4
Ntp5
Rp6
(dp7
S'y'
p8
F-5.0
sS'x'
p9
F51.0
sS'mu'
p10
I2
sS'val'
p11
F101501.66503814909
sbag2
(g3
g4
Ntp12
Rp13
(dp14
g8
F-5.0
sg9
F49.333333333333336
sg10
I2
sg11
F101501.52565414623
sbag2
(g3
g4
Ntp15
Rp16
(dp17
g8
F-5.0
sg9
F47.666666666666664
sg10
I2
sg11
F101501.38766741323
sbag2
(g3
g4
Ntp18
Rp19
(dp20
g8
F-5.0
sg9
F46.0
sg10
I2
sg11
F101501.25184663602
sbag2
(g3
g4
Ntp21
Rp22
(dp23
g8
F-5.0
sg9
F44.333333333333336
sg10
I2
sg11
F101501.11905195906
sbag2
(g3
g4
Ntp24
Rp25
(dp26
g8
F-5.0
sg9
F42.666666666666664
sg10
I2
sg11
F101500.99023815134
sbag2
(g3
g4
Ntp27
Rp28
(dp29
g8
F-5.0
sg9
F41.0
sg10
I2
sg11
F101500.86645616672
sbaa(lp30
g2
(g3
g4
Ntp31
Rp32
(dp33
g8
F-2.5
sg9
F51.0
sg10
I2
sg11
F101501.44016315184
sbag2
(g3
g4
Ntp34
Rp35
(dp36
g8
F-2.5
sg9
F49.333333333333336
sg10
I2
sg11
F101501.28368406286
sbag2
(g3
g4
Ntp37
Rp38
(dp39
g8
F-2.5
sg9
F47.666666666666664
sg10
I2
sg11
F101501.12777721026
sbag2
(g3
g4
Ntp40
Rp41
(dp42
g8
F-2.5
sg9
F46.0
sg10
I2
sg11
F101500.97325324672
sbag2
(g3
g4
Ntp43
Rp44
(dp45
g8
F-2.5
sg9
F44.333333333333336
sg10
I2
sg11
F101500.82103477772
sbag2
(g3
g4
Ntp46
Rp47
(dp48
g8
F-2.5
sg9
F42.666666666666664
sg10
I2
sg11
F101500.67216272512
sbag2
(g3
g4
Ntp49
Rp50
(dp51
g8
F-2.5
sg9
F41.0
sg10
I2
sg11
F101500.5278011129
sbaa(lp52
g2
(g3
g4
Ntp53
Rp54
(dp55
g8
F0.0
sg9
F51.0
sg10
I2
sg11
F101501.21416906921
sbag2
(g3
g4
Ntp56
Rp57
(dp58
g8
F0.0
sg9
F49.333333333333336
sg10
I2
sg11
F101501.0388998237
sbag2
(g3
g4
Ntp59
Rp60
(dp61
g8
F0.0
sg9
F47.666666666666664
sg10
I2
sg11
F101500.86313404403
sbag2
(g3
g4
Ntp62
Rp63
(dp64
g8
F0.0
sg9
F46.0
sg10
I2
sg11
F101500.68770703881
sbag2
(g3
g4
Ntp65
Rp66
(dp67
g8
F0.0
sg9
F44.333333333333336
sg10
I2
sg11
F101500.51358891132
sbag2
(g3
g4
Ntp68
Rp69
(dp70
g8
F0.0
sg9
F42.666666666666664
sg10
I2
sg11
F101500.34189533214
sbag2
(g3
g4
Ntp71
Rp72
(dp73
g8
F0.0
sg9
F41.0
sg10
I2
sg11
F101500.17389698238
sbaa(lp74
g2
(g3
g4
Ntp75
Rp76
(dp77
g8
F2.5
sg9
F51.0
sg10
I2
sg11
F101500.98931348683
sbag2
(g3
g4
Ntp78
Rp79
(dp80
g8
F2.5
sg9
F49.333333333333336
sg10
I2
sg11
F101500.79352789468
sbag2
(g3
g4
Ntp81
Rp82
(dp83
g8
F2.5
sg9
F47.666666666666664
sg10
I2
sg11
F101500.59588887227
sbag2
(g3
g4
Ntp84
Rp85
(dp86
g8
F2.5
sg9
F46.0
sg10
I2
sg11
F101500.39722967781
sbag2
(g3
g4
Ntp87
Rp88
(dp89
g8
F2.5
sg9
F44.333333333333336
sg10
I2
sg11
F101500.19854272528
sbag2
(g3
g4
Ntp90
Rp91
(dp92
g8
F2.5
sg9
F42.666666666666664
sg10
I2
sg11
F101500.00099620894
sbag2
(g3
g4
Ntp93
Rp94
(dp95
g8
F2.5
sg9
F41.0
sg10
I2
sg11
F101499.80595000084
sbaa(lp96
g2
(g3
g4
Ntp97
Rp98
(dp99
g8
F5.0
sg9
F51.0
sg10
I2
sg11
F101500.7684221517
sbag2
(g3
g4
Ntp100
Rp101
(dp102
g8
F5.0
sg9
F49.333333333333336
sg10
I2
sg11
F101500.55042078414
sbag2
(g3
g4
Ntp103
Rp104
(dp105
g8
F5.0
sg9
F47.666666666666664
sg10
I2
sg11
F101500.32887519286
sbag2
(g3
g4
Ntp106
Rp107
(dp108
g8
F5.0
sg9
F46.0
sg10
I2
sg11
F101500.10457787674
sbag2
(g3
g4
Ntp109
Rp110
(dp111
g8
F5.0
sg9
F44.333333333333336
sg10
I2
sg11
F101499.87850479952
sbag2
(g3
g4
Ntp112
Rp113
(dp114
g8
F5.0
sg9
F42.666666666666664
sg10
I2
sg11
F101499.65183946675
sbag2
(g3
g4
Ntp115
Rp116
(dp117
g8
F5.0
sg9
F41.0
sg10
I2
sg11
F101499.42599739968
sbaa(lp118
g2
(g3
g4
Ntp119
Rp120
(dp121
g8
F7.5
sg9
F51.0
sg10
I2
sg11
F101500.55496642858
sbag2
(g3
g4
Ntp122
Rp123
(dp124
g8
F7.5
sg9
F49.333333333333336
sg10
I2
sg11
F101500.31315733408
sbag2
(g3
g4
Ntp125
Rp126
(dp127
g8
F7.5
sg9
F47.666666666666664
sg10
I2
sg11
F101500.06573566675
sbag2
(g3
g4
Ntp128
Rp129
(dp130
g8
F7.5
sg9
F46.0
sg10
I2
sg11
F101499.81339975327
sbag2
(g3
g4
Ntp131
Rp132
(dp133
g8
F7.5
sg9
F44.333333333333336
sg10
I2
sg11
F101499.55705304597
sbag2
(g3
g4
Ntp134
Rp135
(dp136
g8
F7.5
sg9
F42.666666666666664
sg10
I2
sg11
F101499.2978372289
sbag2
(g3
g4
Ntp137
Rp138
(dp139
g8
F7.5
sg9
F41.0
sg10
I2
sg11
F101499.03716756254
sbaa(lp140
g2
(g3
g4
Ntp141
Rp142
(dp143
g8
F10.0
sg9
F51.0
sg10
I2
sg11
F101500.35313173757
sbag2
(g3
g4
Ntp144
Rp145
(dp146
g8
F10.0
sg9
F49.333333333333336
sg10
I2
sg11
F101500.08613806045
sbag2
(g3
g4
Ntp147
Rp148
(dp149
g8
F10.0
sg9
F47.666666666666664
sg10
I2
sg11
F101499.81104971957
sbag2
(g3
g4
Ntp150
Rp151
(dp152
g8
F10.0
sg9
F46.0
sg10
I2
sg11
F101499.52840036471
sbag2
(g3
g4
Ntp153
Rp154
(dp155
g8
F10.0
sg9
F44.333333333333336
sg10
I2
sg11
F101499.2389438708
sbag2
(g3
g4
Ntp156
Rp157
(dp158
g8
F10.0
sg9
F42.666666666666664
sg10
I2
sg11
F101498.94369769123
sbag2
(g3
g4
Ntp159
Rp160
(dp161
g8
F10.0
sg9
F41.0
sg10
I2
sg11
F101498.64399119379
sbaa.