(lp0
(lp1
ccopy_reg
_reconstructor
p2
(clibPoint
Point_C
p3
c__builtin__
object
p4
Ntp5
Rp6
(dp7
S'y'
p8
F-5.0
sS'x'
p9
F51.0
sS'mu'
p10
I1
sS'val'
p11
F101505.61674583453
sbag2
(g3
g4
Ntp12
Rp13
(dp14
g8
F-5.0
sg9
F50.476190476190474
sg10
I1
sg11
F101505.59606395857
sbag2
(g3
g4
Ntp15
Rp16
(dp17
g8
F-5.0
sg9
F49.95238095238095
sg10
I1
sg11
F101505.57541704136
sbag2
(g3
g4
Ntp18
Rp19
(dp20
g8
F-5.0
sg9
F49.42857142857143
sg10
I1
sg11
F101505.55481440887
sbag2
(g3
g4
Ntp21
Rp22
(dp23
g8
F-5.0
sg9
F48.904761904761905
sg10
I1
sg11
F101505.53426575664
sbag2
(g3
g4
Ntp24
Rp25
(dp26
g8
F-5.0
sg9
F48.38095238095238
sg10
I1
sg11
F101505.51378115675
sbag2
(g3
g4
Ntp27
Rp28
(dp29
g8
F-5.0
sg9
F47.857142857142854
sg10
I1
sg11
F101505.49337106483
sbag2
(g3
g4
Ntp30
Rp31
(dp32
g8
F-5.0
sg9
F47.333333333333336
sg10
I1
sg11
F101505.47304632589
sbag2
(g3
g4
Ntp33
Rp34
(dp35
g8
F-5.0
sg9
F46.80952380952381
sg10
I1
sg11
F101505.45281818123
sbag2
(g3
g4
Ntp36
Rp37
(dp38
g8
F-5.0
sg9
F46.285714285714285
sg10
I1
sg11
F101505.43269827352
sbag2
(g3
g4
Ntp39
Rp40
(dp41
g8
F-5.0
sg9
F45.76190476190476
sg10
I1
sg11
F101505.41269865207
sbag2
(g3
g4
Ntp42
Rp43
(dp44
g8
F-5.0
sg9
F45.23809523809524
sg10
I1
sg11
F101505.39283177753
sbag2
(g3
g4
Ntp45
Rp46
(dp47
g8
F-5.0
sg9
F44.714285714285715
sg10
I1
sg11
F101505.37311052569
sbag2
(g3
g4
Ntp48
Rp49
(dp50
g8
F-5.0
sg9
F44.19047619047619
sg10
I1
sg11
F101505.35354819125
sbag2
(g3
g4
Ntp51
Rp52
(dp53
g8
F-5.0
sg9
F43.666666666666664
sg10
I1
sg11
F101505.33415848989
sbag2
(g3
g4
Ntp54
Rp55
(dp56
g8
F-5.0
sg9
F43.14285714285714
sg10
I1
sg11
F101505.3149555607
sbag2
(g3
g4
Ntp57
Rp58
(dp59
g8
F-5.0
sg9
F42.61904761904762
sg10
I1
sg11
F101505.29595396703
sbag2
(g3
g4
Ntp60
Rp61
(dp62
g8
F-5.0
sg9
F42.095238095238095
sg10
I1
sg11
F101505.27716869641
sbag2
(g3
g4
Ntp63
Rp64
(dp65
g8
F-5.0
sg9
F41.57142857142857
sg10
I1
sg11
F101505.25861516013
sbag2
(g3
g4
Ntp66
Rp67
(dp68
g8
F-5.0
sg9
F41.04761904761905
sg10
I1
sg11
F101505.24030919095
sbag2
(g3
g4
Ntp69
Rp70
(dp71
g8
F-5.0
sg9
F40.523809523809526
sg10
I1
sg11
F101505.22226704075
sbag2
(g3
g4
Ntp72
Rp73
(dp74
g8
F-5.0
sg9
F40.0
sg10
I1
sg11
F101505.20450537553
sbaa(lp75
g2
(g3
g4
Ntp76
Rp77
(dp78
g8
F-4.285714285714286
sg9
F51.0
sg10
I1
sg11
F101505.58772581803
sbag2
(g3
g4
Ntp79
Rp80
(dp81
g8
F-4.285714285714286
sg9
F50.476190476190474
sg10
I1
sg11
F101505.56638358475
sbag2
(g3
g4
Ntp82
Rp83
(dp84
g8
F-4.285714285714286
sg9
F49.95238095238095
sg10
I1
sg11
F101505.54506639212
sbag2
(g3
g4
Ntp85
Rp86
(dp87
g8
F-4.285714285714286
sg9
F49.42857142857143
sg10
I1
sg11
F101505.52378366671
sbag2
(g3
g4
Ntp88
Rp89
(dp90
g8
F-4.285714285714286
sg9
F48.904761904761905
sg10
I1
sg11
F101505.5025452233
sbag2
(g3
g4
Ntp91
Rp92
(dp93
g8
F-4.285714285714286
sg9
F48.38095238095238
sg10
I1
sg11
F101505.4813612731
sbag2
(g3
g4
Ntp94
Rp95
(dp96
g8
F-4.285714285714286
sg9
F47.857142857142854
sg10
I1
sg11
F101505.4602424311
sbag2
(g3
g4
Ntp97
Rp98
(dp99
g8
F-4.285714285714286
sg9
F47.333333333333336
sg10
I1
sg11
F101505.43919972422
sbag2
(g3
g4
Ntp100
Rp101
(dp102
g8
F-4.285714285714286
sg9
F46.80952380952381
sg10
I1
sg11
F101505.418244598
sbag2
(g3
g4
Ntp103
Rp104
(dp105
g8
F-4.285714285714286
sg9
F46.285714285714285
sg10
I1
sg11
F101505.39738892332
sbag2
(g3
g4
Ntp106
Rp107
(dp108
g8
F-4.285714285714286
sg9
F45.76190476190476
sg10
I1
sg11
F101505.37664500262
sbag2
(g3
g4
Ntp109
Rp110
(dp111
g8
F-4.285714285714286
sg9
F45.23809523809524
sg10
I1
sg11
F101505.35602557601
sbag2
(g3
g4
Ntp112
Rp113
(dp114
g8
F-4.285714285714286
sg9
F44.714285714285715
sg10
I1
sg11
F101505.33554382563
sbag2
(g3
g4
Ntp115
Rp116
(dp117
g8
F-4.285714285714286
sg9
F44.19047619047619
sg10
I1
sg11
F101505.31521338083
sbag2
(g3
g4
Ntp118
Rp119
(dp120
g8
F-4.285714285714286
sg9
F43.666666666666664
sg10
I1
sg11
F101505.2950483215
sbag2
(g3
g4
Ntp121
Rp122
(dp123
g8
F-4.285714285714286
sg9
F43.14285714285714
sg10
I1
sg11
F101505.27506318083
sbag2
(g3
g4
Ntp124
Rp125
(dp126
g8
F-4.285714285714286
sg9
F42.61904761904762
sg10
I1
sg11
F101505.25527294817
sbag2
(g3
g4
Ntp127
Rp128
(dp129
g8
F-4.285714285714286
sg9
F42.095238095238095
sg10
I1
sg11
F101505.23569306933
sbag2
(g3
g4
Ntp130
Rp131
(dp132
g8
F-4.285714285714286
sg9
F41.57142857142857
sg10
I1
sg11
F101505.21633944735
sbag2
(g3
g4
Ntp133
Rp134
(dp135
g8
F-4.285714285714286
sg9
F41.04761904761905
sg10
I1
sg11
F101505.1972284414
sbag2
(g3
g4
Ntp136
Rp137
(dp138
g8
F-4.285714285714286
sg9
F40.523809523809526
sg10
I1
sg11
F101505.17837686461
sbag2
(g3
g4
Ntp139
Rp140
(dp141
g8
F-4.285714285714286
sg9
F40.0
sg10
I1
sg11
F101505.15980198116
sbaa(lp142
g2
(g3
g4
Ntp143
Rp144
(dp145
g8
F-3.571428571428571
sg9
F51.0
sg10
I1
sg11
F101505.55864811369
sbag2
(g3
g4
Ntp146
Rp147
(dp148
g8
F-3.571428571428571
sg9
F50.476190476190474
sg10
I1
sg11
F101505.53662808165
sbag2
(g3
g4
Ntp149
Rp150
(dp151
g8
F-3.571428571428571
sg9
F49.95238095238095
sg10
I1
sg11
F101505.51462245235
sbag2
(g3
g4
Ntp152
Rp153
(dp154
g8
F-3.571428571428571
sg9
F49.42857142857143
sg10
I1
sg11
F101505.49264073734
sbag2
(g3
g4
Ntp155
Rp156
(dp157
g8
F-3.571428571428571
sg9
F48.904761904761905
sg10
I1
sg11
F101505.4706928554
sbag2
(g3
g4
Ntp158
Rp159
(dp160
g8
F-3.571428571428571
sg9
F48.38095238095238
sg10
I1
sg11
F101505.44878914184
sbag2
(g3
g4
Ntp161
Rp162
(dp163
g8
F-3.571428571428571
sg9
F47.857142857142854
sg10
I1
sg11
F101505.4269403575
sbag2
(g3
g4
Ntp164
Rp165
(dp166
g8
F-3.571428571428571
sg9
F47.333333333333336
sg10
I1
sg11
F101505.40515769734
sbag2
(g3
g4
Ntp167
Rp168
(dp169
g8
F-3.571428571428571
sg9
F46.80952380952381
sg10
I1
sg11
F101505.38345279844
sbag2
(g3
g4
Ntp170
Rp171
(dp172
g8
F-3.571428571428571
sg9
F46.285714285714285
sg10
I1
sg11
F101505.3618377484
sbag2
(g3
g4
Ntp173
Rp174
(dp175
g8
F-3.571428571428571
sg9
F45.76190476190476
sg10
I1
sg11
F101505.34032509215
sbag2
(g3
g4
Ntp176
Rp177
(dp178
g8
F-3.571428571428571
sg9
F45.23809523809524
sg10
I1
sg11
F101505.31892783933
sbag2
(g3
g4
Ntp179
Rp180
(dp181
g8
F-3.571428571428571
sg9
F44.714285714285715
sg10
I1
sg11
F101505.2976594703
sbag2
(g3
g4
Ntp182
Rp183
(dp184
g8
F-3.571428571428571
sg9
F44.19047619047619
sg10
I1
sg11
F101505.2765339419
sbag2
(g3
g4
Ntp185
Rp186
(dp187
g8
F-3.571428571428571
sg9
F43.666666666666664
sg10
I1
sg11
F101505.25556569245
sbag2
(g3
g4
Ntp188
Rp189
(dp190
g8
F-3.571428571428571
sg9
F43.14285714285714
sg10
I1
sg11
F101505.23476964564
sbag2
(g3
g4
Ntp191
Rp192
(dp193
g8
F-3.571428571428571
sg9
F42.61904761904762
sg10
I1
sg11
F101505.21416121426
sbag2
(g3
g4
Ntp194
Rp195
(dp196
g8
F-3.571428571428571
sg9
F42.095238095238095
sg10
I1
sg11
F101505.19375630213
sbag2
(g3
g4
Ntp197
Rp198
(dp199
g8
F-3.571428571428571
sg9
F41.57142857142857
sg10
I1
sg11
F101505.17357130579
sbag2
(g3
g4
Ntp200
Rp201
(dp202
g8
F-3.571428571428571
sg9
F41.04761904761905
sg10
I1
sg11
F101505.15362311424
sbag2
(g3
g4
Ntp203
Rp204
(dp205
g8
F-3.571428571428571
sg9
F40.523809523809526
sg10
I1
sg11
F101505.13392910852
sbag2
(g3
g4
Ntp206
Rp207
(dp208
g8
F-3.571428571428571
sg9
F40.0
sg10
I1
sg11
F101505.11450715904
sbaa(lp209
g2
(g3
g4
Ntp210
Rp211
(dp212
g8
F-2.857142857142857
sg9
F51.0
sg10
I1
sg11
F101505.52953174664
sbag2
(g3
g4
Ntp213
Rp214
(dp215
g8
F-2.857142857142857
sg9
F50.476190476190474
sg10
I1
sg11
F101505.50681632076
sbag2
(g3
g4
Ntp216
Rp217
(dp218
g8
F-2.857142857142857
sg9
F49.95238095238095
sg10
I1
sg11
F101505.48410390539
sbag2
(g3
g4
Ntp219
Rp220
(dp221
g8
F-2.857142857142857
sg9
F49.42857142857143
sg10
I1
sg11
F101505.46140407915
sbag2
(g3
g4
Ntp222
Rp223
(dp224
g8
F-2.857142857142857
sg9
F48.904761904761905
sg10
I1
sg11
F101505.43872684758
sbag2
(g3
g4
Ntp225
Rp226
(dp227
g8
F-2.857142857142857
sg9
F48.38095238095238
sg10
I1
sg11
F101505.41608265354
sbag2
(g3
g4
Ntp228
Rp229
(dp230
g8
F-2.857142857142857
sg9
F47.857142857142854
sg10
I1
sg11
F101505.39348238712
sbag2
(g3
g4
Ntp231
Rp232
(dp233
g8
F-2.857142857142857
sg9
F47.333333333333336
sg10
I1
sg11
F101505.37093739586
sbag2
(g3
g4
Ntp234
Rp235
(dp236
g8
F-2.857142857142857
sg9
F46.80952380952381
sg10
I1
sg11
F101505.34845949382
sbag2
(g3
g4
Ntp237
Rp238
(dp239
g8
F-2.857142857142857
sg9
F46.285714285714285
sg10
I1
sg11
F101505.32606097097
sbag2
(g3
g4
Ntp240
Rp241
(dp242
g8
F-2.857142857142857
sg9
F45.76190476190476
sg10
I1
sg11
F101505.30375460198
sbag2
(g3
g4
Ntp243
Rp244
(dp245
g8
F-2.857142857142857
sg9
F45.23809523809524
sg10
I1
sg11
F101505.28155365419
sbag2
(g3
g4
Ntp246
Rp247
(dp248
g8
F-2.857142857142857
sg9
F44.714285714285715
sg10
I1
sg11
F101505.25947189529
sbag2
(g3
g4
Ntp249
Rp250
(dp251
g8
F-2.857142857142857
sg9
F44.19047619047619
sg10
I1
sg11
F101505.23752360034
sbag2
(g3
g4
Ntp252
Rp253
(dp254
g8
F-2.857142857142857
sg9
F43.666666666666664
sg10
I1
sg11
F101505.2157235583
sbag2
(g3
g4
Ntp255
Rp256
(dp257
g8
F-2.857142857142857
sg9
F43.14285714285714
sg10
I1
sg11
F101505.19408707721
sbag2
(g3
g4
Ntp258
Rp259
(dp260
g8
F-2.857142857142857
sg9
F42.61904761904762
sg10
I1
sg11
F101505.17262998874
sbag2
(g3
g4
Ntp261
Rp262
(dp263
g8
F-2.857142857142857
sg9
F42.095238095238095
sg10
I1
sg11
F101505.15136865222
sbag2
(g3
g4
Ntp264
Rp265
(dp266
g8
F-2.857142857142857
sg9
F41.57142857142857
sg10
I1
sg11
F101505.13031995704
sbag2
(g3
g4
Ntp267
Rp268
(dp269
g8
F-2.857142857142857
sg9
F41.04761904761905
sg10
I1
sg11
F101505.1095013241
sbag2
(g3
g4
Ntp270
Rp271
(dp272
g8
F-2.857142857142857
sg9
F40.523809523809526
sg10
I1
sg11
F101505.0889307063
sbag2
(g3
g4
Ntp273
Rp274
(dp275
g8
F-2.857142857142857
sg9
F40.0
sg10
I1
sg11
F101505.06862658732
sbaa(lp276
g2
(g3
g4
Ntp277
Rp278
(dp279
g8
F-2.142857142857143
sg9
F51.0
sg10
I1
sg11
F101505.50039708288
sbag2
(g3
g4
Ntp280
Rp281
(dp282
g8
F-2.142857142857143
sg9
F50.476190476190474
sg10
I1
sg11
F101505.47696854669
sbag2
(g3
g4
Ntp283
Rp284
(dp285
g8
F-2.142857142857143
sg9
F49.95238095238095
sg10
I1
sg11
F101505.45353083889
sbag2
(g3
g4
Ntp286
Rp287
(dp288
g8
F-2.142857142857143
sg9
F49.42857142857143
sg10
I1
sg11
F101505.4300935855
sbag2
(g3
g4
Ntp289
Rp290
(dp291
g8
F-2.142857142857143
sg9
F48.904761904761905
sg10
I1
sg11
F101505.4066668593
sbag2
(g3
g4
Ntp292
Rp293
(dp294
g8
F-2.142857142857143
sg9
F48.38095238095238
sg10
I1
sg11
F101505.38326119153
sbag2
(g3
g4
Ntp295
Rp296
(dp297
g8
F-2.142857142857143
sg9
F47.857142857142854
sg10
I1
sg11
F101505.35988758331
sbag2
(g3
g4
Ntp298
Rp299
(dp300
g8
F-2.142857142857143
sg9
F47.333333333333336
sg10
I1
sg11
F101505.33655751655
sbag2
(g3
g4
Ntp301
Rp302
(dp303
g8
F-2.142857142857143
sg9
F46.80952380952381
sg10
I1
sg11
F101505.3132829651
sbag2
(g3
g4
Ntp304
Rp305
(dp306
g8
F-2.142857142857143
sg9
F46.285714285714285
sg10
I1
sg11
F101505.29007640517
sbag2
(g3
g4
Ntp307
Rp308
(dp309
g8
F-2.142857142857143
sg9
F45.76190476190476
sg10
I1
sg11
F101505.26695082537
sbag2
(g3
g4
Ntp310
Rp311
(dp312
g8
F-2.142857142857143
sg9
F45.23809523809524
sg10
I1
sg11
F101505.24391973644
sbag2
(g3
g4
Ntp313
Rp314
(dp315
g8
F-2.142857142857143
sg9
F44.714285714285715
sg10
I1
sg11
F101505.22099718031
sbag2
(g3
g4
Ntp316
Rp317
(dp318
g8
F-2.142857142857143
sg9
F44.19047619047619
sg10
I1
sg11
F101505.1981977385
sbag2
(g3
g4
Ntp319
Rp320
(dp321
g8
F-2.142857142857143
sg9
F43.666666666666664
sg10
I1
sg11
F101505.17553654019
sbag2
(g3
g4
Ntp322
Rp323
(dp324
g8
F-2.142857142857143
sg9
F43.14285714285714
sg10
I1
sg11
F101505.15302926861
sbag2
(g3
g4
Ntp325
Rp326
(dp327
g8
F-2.142857142857143
sg9
F42.61904761904762
sg10
I1
sg11
F101505.13069216782
sbag2
(g3
g4
Ntp328
Rp329
(dp330
g8
F-2.142857142857143
sg9
F42.095238095238095
sg10
I1
sg11
F101505.10854204753
sbag2
(g3
g4
Ntp331
Rp332
(dp333
g8
F-2.142857142857143
sg9
F41.57142857142857
sg10
I1
sg11
F101505.0865962871
sbag2
(g3
g4
Ntp334
Rp335
(dp336
g8
F-2.142857142857143
sg9
F41.04761904761905
sg10
I1
sg11
F101505.06487283882
sbag2
(g3
g4
Ntp337
Rp338
(dp339
g8
F-2.142857142857143
sg9
F40.523809523809526
sg10
I1
sg11
F101505.04339022942
sbag2
(g3
g4
Ntp340
Rp341
(dp342
g8
F-2.142857142857143
sg9
F40.0
sg10
I1
sg11
F101505.02216756016
sbaa(lp343
g2
(g3
g4
Ntp344
Rp345
(dp346
g8
F-1.4285714285714284
sg9
F51.0
sg10
I1
sg11
F101505.47126589112
sbag2
(g3
g4
Ntp347
Rp348
(dp349
g8
F-1.4285714285714284
sg9
F50.476190476190474
sg10
I1
sg11
F101505.44710644221
sbag2
(g3
g4
Ntp350
Rp351
(dp352
g8
F-1.4285714285714284
sg9
F49.95238095238095
sg10
I1
sg11
F101505.42292481386
sbag2
(g3
g4
Ntp353
Rp354
(dp355
g8
F-1.4285714285714284
sg9
F49.42857142857143
sg10
I1
sg11
F101505.3987306575
sbag2
(g3
g4
Ntp356
Rp357
(dp358
g8
F-1.4285714285714284
sg9
F48.904761904761905
sg10
I1
sg11
F101505.37453409129
sbag2
(g3
g4
Ntp359
Rp360
(dp361
g8
F-1.4285714285714284
sg9
F48.38095238095238
sg10
I1
sg11
F101505.35034571346
sbag2
(g3
g4
Ntp362
Rp363
(dp364
g8
F-1.4285714285714284
sg9
F47.857142857142854
sg10
I1
sg11
F101505.3261766149
sbag2
(g3
g4
Ntp365
Rp366
(dp367
g8
F-1.4285714285714284
sg9
F47.333333333333336
sg10
I1
sg11
F101505.3020383917
sbag2
(g3
g4
Ntp368
Rp369
(dp370
g8
F-1.4285714285714284
sg9
F46.80952380952381
sg10
I1
sg11
F101505.27794315747
sbag2
(g3
g4
Ntp371
Rp372
(dp373
g8
F-1.4285714285714284
sg9
F46.285714285714285
sg10
I1
sg11
F101505.25390355564
sbag2
(g3
g4
Ntp374
Rp375
(dp376
g8
F-1.4285714285714284
sg9
F45.76190476190476
sg10
I1
sg11
F101505.22993277064
sbag2
(g3
g4
Ntp377
Rp378
(dp379
g8
F-1.4285714285714284
sg9
F45.23809523809524
sg10
I1
sg11
F101505.20604453945
sbag2
(g3
g4
Ntp380
Rp381
(dp382
g8
F-1.4285714285714284
sg9
F44.714285714285715
sg10
I1
sg11
F101505.18225316219
sbag2
(g3
g4
Ntp383
Rp384
(dp385
g8
F-1.4285714285714284
sg9
F44.19047619047619
sg10
I1
sg11
F101505.15857351226
sbag2
(g3
g4
Ntp386
Rp387
(dp388
g8
F-1.4285714285714284
sg9
F43.666666666666664
sg10
I1
sg11
F101505.13502104572
sbag2
(g3
g4
Ntp389
Rp390
(dp391
g8
F-1.4285714285714284
sg9
F43.14285714285714
sg10
I1
sg11
F101505.11161180986
sbag2
(g3
g4
Ntp392
Rp393
(dp394
g8
F-1.4285714285714284
sg9
F42.61904761904762
sg10
I1
sg11
F101505.08836245097
sbag2
(g3
g4
Ntp395
Rp396
(dp397
g8
F-1.4285714285714284
sg9
F42.095238095238095
sg10
I1
sg11
F101505.06529022144
sbag2
(g3
g4
Ntp398
Rp399
(dp400
g8
F-1.4285714285714284
sg9
F41.57142857142857
sg10
I1
sg11
F101505.04241298519
sbag2
(g3
g4
Ntp401
Rp402
(dp403
g8
F-1.4285714285714284
sg9
F41.04761904761905
sg10
I1
sg11
F101505.01974922254
sbag2
(g3
g4
Ntp404
Rp405
(dp406
g8
F-1.4285714285714284
sg9
F40.523809523809526
sg10
I1
sg11
F101504.99731803319
sbag2
(g3
g4
Ntp407
Rp408
(dp409
g8
F-1.4285714285714284
sg9
F40.0
sg10
I1
sg11
F101504.97513913845
sbaa(lp410
g2
(g3
g4
Ntp411
Rp412
(dp413
g8
F-0.7142857142857144
sg9
F51.0
sg10
I1
sg11
F101505.44216140371
sbag2
(g3
g4
Ntp414
Rp415
(dp416
g8
F-0.7142857142857144
sg9
F50.476190476190474
sg10
I1
sg11
F101505.41725319377
sbag2
(g3
g4
Ntp417
Rp418
(dp419
g8
F-0.7142857142857144
sg9
F49.95238095238095
sg10
I1
sg11
F101505.39230893474
sbag2
(g3
g4
Ntp420
Rp421
(dp422
g8
F-0.7142857142857144
sg9
F49.42857142857143
sg10
I1
sg11
F101505.3673382786
sbag2
(g3
g4
Ntp423
Rp424
(dp425
g8
F-0.7142857142857144
sg9
F48.904761904761905
sg10
I1
sg11
F101505.3423513648
sbag2
(g3
g4
Ntp426
Rp427
(dp428
g8
F-0.7142857142857144
sg9
F48.38095238095238
sg10
I1
sg11
F101505.31735883447
sbag2
(g3
g4
Ntp429
Rp430
(dp431
g8
F-0.7142857142857144
sg9
F47.857142857142854
sg10
I1
sg11
F101505.2923718445
sbag2
(g3
g4
Ntp432
Rp433
(dp434
g8
F-0.7142857142857144
sg9
F47.333333333333336
sg10
I1
sg11
F101505.26740208194
sbag2
(g3
g4
Ntp435
Rp436
(dp437
g8
F-0.7142857142857144
sg9
F46.80952380952381
sg10
I1
sg11
F101505.24246177766
sbag2
(g3
g4
Ntp438
Rp439
(dp440
g8
F-0.7142857142857144
sg9
F46.285714285714285
sg10
I1
sg11
F101505.21756371998
sbag2
(g3
g4
Ntp441
Rp442
(dp443
g8
F-0.7142857142857144
sg9
F45.76190476190476
sg10
I1
sg11
F101505.1927212684
sbag2
(g3
g4
Ntp444
Rp445
(dp446
g8
F-0.7142857142857144
sg9
F45.23809523809524
sg10
I1
sg11
F101505.1679483659
sbag2
(g3
g4
Ntp447
Rp448
(dp449
g8
F-0.7142857142857144
sg9
F44.714285714285715
sg10
I1
sg11
F101505.14325955181
sbag2
(g3
g4
Ntp450
Rp451
(dp452
g8
F-0.7142857142857144
sg9
F44.19047619047619
sg10
I1
sg11
F101505.11866997344
sbag2
(g3
g4
Ntp453
Rp454
(dp455
g8
F-0.7142857142857144
sg9
F43.666666666666664
sg10
I1
sg11
F101505.09419539757
sbag2
(g3
g4
Ntp456
Rp457
(dp458
g8
F-0.7142857142857144
sg9
F43.14285714285714
sg10
I1
sg11
F101505.0698522207
sbag2
(g3
g4
Ntp459
Rp460
(dp461
g8
F-0.7142857142857144
sg9
F42.61904761904762
sg10
I1
sg11
F101505.04565747858
sbag2
(g3
g4
Ntp462
Rp463
(dp464
g8
F-0.7142857142857144
sg9
F42.095238095238095
sg10
I1
sg11
F101505.02162885558
sbag2
(g3
g4
Ntp465
Rp466
(dp467
g8
F-0.7142857142857144
sg9
F41.57142857142857
sg10
I1
sg11
F101504.99778469115
sbag2
(g3
g4
Ntp468
Rp469
(dp470
g8
F-0.7142857142857144
sg9
F41.04761904761905
sg10
I1
sg11
F101504.97414398736
sbag2
(g3
g4
Ntp471
Rp472
(dp473
g8
F-0.7142857142857144
sg9
F40.523809523809526
sg10
I1
sg11
F101504.95072641353
sbag2
(g3
g4
Ntp474
Rp475
(dp476
g8
F-0.7142857142857144
sg9
F40.0
sg10
I1
sg11
F101504.92755230998
sbaa(lp477
g2
(g3
g4
Ntp478
Rp479
(dp480
g8
F0.0
sg9
F51.0
sg10
I1
sg11
F101505.41310837968
sbag2
(g3
g4
Ntp481
Rp482
(dp483
g8
F0.0
sg9
F50.476190476190474
sg10
I1
sg11
F101505.38743355863
sbag2
(g3
g4
Ntp484
Rp485
(dp486
g8
F0.0
sg9
F49.95238095238095
sg10
I1
sg11
F101505.36170792015
sbag2
(g3
g4
Ntp487
Rp488
(dp489
g8
F0.0
sg9
F49.42857142857143
sg10
I1
sg11
F101505.33594109006
sbag2
(g3
g4
Ntp490
Rp491
(dp492
g8
F0.0
sg9
F48.904761904761905
sg10
I1
sg11
F101505.31014320174
sbag2
(g3
g4
Ntp493
Rp494
(dp495
g8
F0.0
sg9
F48.38095238095238
sg10
I1
sg11
F101505.28432491238
sbag2
(g3
g4
Ntp496
Rp497
(dp498
g8
F0.0
sg9
F47.857142857142854
sg10
I1
sg11
F101505.25849741859
sbag2
(g3
g4
Ntp499
Rp500
(dp501
g8
F0.0
sg9
F47.333333333333336
sg10
I1
sg11
F101505.23267247183
sbag2
(g3
g4
Ntp502
Rp503
(dp504
g8
F0.0
sg9
F46.80952380952381
sg10
I1
sg11
F101505.20686239461
sbag2
(g3
g4
Ntp505
Rp506
(dp507
g8
F0.0
sg9
F46.285714285714285
sg10
I1
sg11
F101505.1810800954
sbag2
(g3
g4
Ntp508
Rp509
(dp510
g8
F0.0
sg9
F45.76190476190476
sg10
I1
sg11
F101505.15533908387
sbag2
(g3
g4
Ntp511
Rp512
(dp513
g8
F0.0
sg9
F45.23809523809524
sg10
I1
sg11
F101505.12965348574
sbag2
(g3
g4
Ntp514
Rp515
(dp516
g8
F0.0
sg9
F44.714285714285715
sg10
I1
sg11
F101505.10403805721
sbag2
(g3
g4
Ntp517
Rp518
(dp519
g8
F0.0
sg9
F44.19047619047619
sg10
I1
sg11
F101505.07850819839
sbag2
(g3
g4
Ntp520
Rp521
(dp522
g8
F0.0
sg9
F43.666666666666664
sg10
I1
sg11
F101505.05307996701
sbag2
(g3
g4
Ntp523
Rp524
(dp525
g8
F0.0
sg9
F43.14285714285714
sg10
I1
sg11
F101505.0277700904
sbag2
(g3
g4
Ntp526
Rp527
(dp528
g8
F0.0
sg9
F42.61904761904762
sg10
I1
sg11
F101505.00259597773
sbag2
(g3
g4
Ntp529
Rp530
(dp531
g8
F0.0
sg9
F42.095238095238095
sg10
I1
sg11
F101504.97757573039
sbag2
(g3
g4
Ntp532
Rp533
(dp534
g8
F0.0
sg9
F41.57142857142857
sg10
I1
sg11
F101504.95272815168
sbag2
(g3
g4
Ntp535
Rp536
(dp537
g8
F0.0
sg9
F41.04761904761905
sg10
I1
sg11
F101504.92807275552
sbag2
(g3
g4
Ntp538
Rp539
(dp540
g8
F0.0
sg9
F40.523809523809526
sg10
I1
sg11
F101504.90362977375
sbag2
(g3
g4
Ntp541
Rp542
(dp543
g8
F0.0
sg9
F40.0
sg10
I1
sg11
F101504.87942016144
sbaa(lp544
g2
(g3
g4
Ntp545
Rp546
(dp547
g8
F0.7142857142857144
sg9
F51.0
sg10
I1
sg11
F101505.3841331674
sbag2
(g3
g4
Ntp548
Rp549
(dp550
g8
F0.7142857142857144
sg9
F50.476190476190474
sg10
I1
sg11
F101505.35767393188
sbag2
(g3
g4
Ntp551
Rp552
(dp553
g8
F0.7142857142857144
sg9
F49.95238095238095
sg10
I1
sg11
F101505.3311481755
sbag2
(g3
g4
Ntp554
Rp555
(dp556
g8
F0.7142857142857144
sg9
F49.42857142857143
sg10
I1
sg11
F101505.30456546784
sbag2
(g3
g4
Ntp557
Rp558
(dp559
g8
F0.7142857142857144
sg9
F48.904761904761905
sg10
I1
sg11
F101505.2779359067
sbag2
(g3
g4
Ntp560
Rp561
(dp562
g8
F0.7142857142857144
sg9
F48.38095238095238
sg10
I1
sg11
F101505.25127013534
sbag2
(g3
g4
Ntp563
Rp564
(dp565
g8
F0.7142857142857144
sg9
F47.857142857142854
sg10
I1
sg11
F101505.22457936018
sbag2
(g3
g4
Ntp566
Rp567
(dp568
g8
F0.7142857142857144
sg9
F47.333333333333336
sg10
I1
sg11
F101505.19787536813
sbag2
(g3
g4
Ntp569
Rp570
(dp571
g8
F0.7142857142857144
sg9
F46.80952380952381
sg10
I1
sg11
F101505.17117054401
sbag2
(g3
g4
Ntp572
Rp573
(dp574
g8
F0.7142857142857144
sg9
F46.285714285714285
sg10
I1
sg11
F101505.1444778878
sbag2
(g3
g4
Ntp575
Rp576
(dp577
g8
F0.7142857142857144
sg9
F45.76190476190476
sg10
I1
sg11
F101505.11781103196
sbag2
(g3
g4
Ntp578
Rp579
(dp580
g8
F0.7142857142857144
sg9
F45.23809523809524
sg10
I1
sg11
F101505.0911842576
sbag2
(g3
g4
Ntp581
Rp582
(dp583
g8
F0.7142857142857144
sg9
F44.714285714285715
sg10
I1
sg11
F101505.06461251178
sbag2
(g3
g4
Ntp584
Rp585
(dp586
g8
F0.7142857142857144
sg9
F44.19047619047619
sg10
I1
sg11
F101505.03811142246
sbag2
(g3
g4
Ntp587
Rp588
(dp589
g8
F0.7142857142857144
sg9
F43.666666666666664
sg10
I1
sg11
F101505.01169731467
sbag2
(g3
g4
Ntp590
Rp591
(dp592
g8
F0.7142857142857144
sg9
F43.14285714285714
sg10
I1
sg11
F101504.98538722486
sbag2
(g3
g4
Ntp593
Rp594
(dp595
g8
F0.7142857142857144
sg9
F42.61904761904762
sg10
I1
sg11
F101504.95919891488
sbag2
(g3
g4
Ntp596
Rp597
(dp598
g8
F0.7142857142857144
sg9
F42.095238095238095
sg10
I1
sg11
F101504.93315088515
sbag2
(g3
g4
Ntp599
Rp600
(dp601
g8
F0.7142857142857144
sg9
F41.57142857142857
sg10
I1
sg11
F101504.90726238648
sbag2
(g3
g4
Ntp602
Rp603
(dp604
g8
F0.7142857142857144
sg9
F41.04761904761905
sg10
I1
sg11
F101504.8815534312
sbag2
(g3
g4
Ntp605
Rp606
(dp607
g8
F0.7142857142857144
sg9
F40.523809523809526
sg10
I1
sg11
F101504.8560448023
sbag2
(g3
g4
Ntp608
Rp609
(dp610
g8
F0.7142857142857144
sg9
F40.0
sg10
I1
sg11
F101504.83075806213
sbaa(lp611
g2
(g3
g4
Ntp612
Rp613
(dp614
g8
F1.4285714285714288
sg9
F51.0
sg10
I1
sg11
F101505.3552637666
sbag2
(g3
g4
Ntp615
Rp616
(dp617
g8
F1.4285714285714288
sg9
F50.476190476190474
sg10
I1
sg11
F101505.32800241363
sbag2
(g3
g4
Ntp618
Rp619
(dp620
g8
F1.4285714285714288
sg9
F49.95238095238095
sg10
I1
sg11
F101505.30065786465
sbag2
(g3
g4
Ntp621
Rp622
(dp623
g8
F1.4285714285714288
sg9
F49.42857142857143
sg10
I1
sg11
F101505.27323960044
sbag2
(g3
g4
Ntp624
Rp625
(dp626
g8
F1.4285714285714288
sg9
F48.904761904761905
sg10
I1
sg11
F101505.24575765002
sbag2
(g3
g4
Ntp627
Rp628
(dp629
g8
F1.4285714285714288
sg9
F48.38095238095238
sg10
I1
sg11
F101505.21822260992
sbag2
(g3
g4
Ntp630
Rp631
(dp632
g8
F1.4285714285714288
sg9
F47.857142857142854
sg10
I1
sg11
F101505.19064566359
sbag2
(g3
g4
Ntp633
Rp634
(dp635
g8
F1.4285714285714288
sg9
F47.333333333333336
sg10
I1
sg11
F101505.1630386001
sbag2
(g3
g4
Ntp636
Rp637
(dp638
g8
F1.4285714285714288
sg9
F46.80952380952381
sg10
I1
sg11
F101505.13541383439
sbag2
(g3
g4
Ntp639
Rp640
(dp641
g8
F1.4285714285714288
sg9
F46.285714285714285
sg10
I1
sg11
F101505.1077844257
sbag2
(g3
g4
Ntp642
Rp643
(dp644
g8
F1.4285714285714288
sg9
F45.76190476190476
sg10
I1
sg11
F101505.0801640974
sbag2
(g3
g4
Ntp645
Rp646
(dp647
g8
F1.4285714285714288
sg9
F45.23809523809524
sg10
I1
sg11
F101505.05256725538
sbag2
(g3
g4
Ntp648
Rp649
(dp650
g8
F1.4285714285714288
sg9
F44.714285714285715
sg10
I1
sg11
F101505.02500900722
sbag2
(g3
g4
Ntp651
Rp652
(dp653
g8
F1.4285714285714288
sg9
F44.19047619047619
sg10
I1
sg11
F101504.99750517994
sbag2
(g3
g4
Ntp654
Rp655
(dp656
g8
F1.4285714285714288
sg9
F43.666666666666664
sg10
I1
sg11
F101504.97007233807
sbag2
(g3
g4
Ntp657
Rp658
(dp659
g8
F1.4285714285714288
sg9
F43.14285714285714
sg10
I1
sg11
F101504.94272780058
sbag2
(g3
g4
Ntp660
Rp661
(dp662
g8
F1.4285714285714288
sg9
F42.61904761904762
sg10
I1
sg11
F101504.91548965775
sbag2
(g3
g4
Ntp663
Rp664
(dp665
g8
F1.4285714285714288
sg9
F42.095238095238095
sg10
I1
sg11
F101504.88837678611
sbag2
(g3
g4
Ntp666
Rp667
(dp668
g8
F1.4285714285714288
sg9
F41.57142857142857
sg10
I1
sg11
F101504.86140886348
sbag2
(g3
g4
Ntp669
Rp670
(dp671
g8
F1.4285714285714288
sg9
F41.04761904761905
sg10
I1
sg11
F101504.83460638249
sbag2
(g3
g4
Ntp672
Rp673
(dp674
g8
F1.4285714285714288
sg9
F40.523809523809526
sg10
I1
sg11
F101504.80799066223
sbag2
(g3
g4
Ntp675
Rp676
(dp677
g8
F1.4285714285714288
sg9
F40.0
sg10
I1
sg11
F101504.78158385964
sbaa(lp678
g2
(g3
g4
Ntp679
Rp680
(dp681
g8
F2.1428571428571432
sg9
F51.0
sg10
I1
sg11
F101505.32652989087
sbag2
(g3
g4
Ntp682
Rp683
(dp684
g8
F2.1428571428571432
sg9
F50.476190476190474
sg10
I1
sg11
F101505.2984488763
sbag2
(g3
g4
Ntp685
Rp686
(dp687
g8
F2.1428571428571432
sg9
F49.95238095238095
sg10
I1
sg11
F101505.27026698284
sbag2
(g3
g4
Ntp688
Rp689
(dp690
g8
F2.1428571428571432
sg9
F49.42857142857143
sg10
I1
sg11
F101505.24199356651
sbag2
(g3
g4
Ntp691
Rp692
(dp693
g8
F2.1428571428571432
sg9
F48.904761904761905
sg10
I1
sg11
F101505.21363855165
sbag2
(g3
g4
Ntp694
Rp695
(dp696
g8
F2.1428571428571432
sg9
F48.38095238095238
sg10
I1
sg11
F101505.18521245166
sbag2
(g3
g4
Ntp697
Rp698
(dp699
g8
F2.1428571428571432
sg9
F47.857142857142854
sg10
I1
sg11
F101505.15672639014
sbag2
(g3
g4
Ntp700
Rp701
(dp702
g8
F2.1428571428571432
sg9
F47.333333333333336
sg10
I1
sg11
F101505.12819212241
sbag2
(g3
g4
Ntp703
Rp704
(dp705
g8
F2.1428571428571432
sg9
F46.80952380952381
sg10
I1
sg11
F101505.0996220567
sbag2
(g3
g4
Ntp706
Rp707
(dp708
g8
F2.1428571428571432
sg9
F46.285714285714285
sg10
I1
sg11
F101505.07102927571
sbag2
(g3
g4
Ntp709
Rp710
(dp711
g8
F2.1428571428571432
sg9
F45.76190476190476
sg10
I1
sg11
F101505.04242755783
sbag2
(g3
g4
Ntp712
Rp713
(dp714
g8
F2.1428571428571432
sg9
F45.23809523809524
sg10
I1
sg11
F101505.01383139868
sbag2
(g3
g4
Ntp715
Rp716
(dp717
g8
F2.1428571428571432
sg9
F44.714285714285715
sg10
I1
sg11
F101504.98525603182
sbag2
(g3
g4
Ntp718
Rp719
(dp720
g8
F2.1428571428571432
sg9
F44.19047619047619
sg10
I1
sg11
F101504.95671744978
sbag2
(g3
g4
Ntp721
Rp722
(dp723
g8
F2.1428571428571432
sg9
F43.666666666666664
sg10
I1
sg11
F101504.9282324242
sbag2
(g3
g4
Ntp724
Rp725
(dp726
g8
F2.1428571428571432
sg9
F43.14285714285714
sg10
I1
sg11
F101504.89981852596
sbag2
(g3
g4
Ntp727
Rp728
(dp729
g8
F2.1428571428571432
sg9
F42.61904761904762
sg10
I1
sg11
F101504.87149414388
sbag2
(g3
g4
Ntp730
Rp731
(dp732
g8
F2.1428571428571432
sg9
F42.095238095238095
sg10
I1
sg11
F101504.84327850334
sbag2
(g3
g4
Ntp733
Rp734
(dp735
g8
F2.1428571428571432
sg9
F41.57142857142857
sg10
I1
sg11
F101504.81519168377
sbag2
(g3
g4
Ntp736
Rp737
(dp738
g8
F2.1428571428571432
sg9
F41.04761904761905
sg10
I1
sg11
F101504.78725463476
sbag2
(g3
g4
Ntp739
Rp740
(dp741
g8
F2.1428571428571432
sg9
F40.523809523809526
sg10
I1
sg11
F101504.75948919154
sbag2
(g3
g4
Ntp742
Rp743
(dp744
g8
F2.1428571428571432
sg9
F40.0
sg10
I1
sg11
F101504.73191808812
sbaa(lp745
g2
(g3
g4
Ntp746
Rp747
(dp748
g8
F2.8571428571428577
sg9
F51.0
sg10
I1
sg11
F101505.29796302853
sbag2
(g3
g4
Ntp749
Rp750
(dp751
g8
F2.8571428571428577
sg9
F50.476190476190474
sg10
I1
sg11
F101505.26904503102
sbag2
(g3
g4
Ntp752
Rp753
(dp754
g8
F2.8571428571428577
sg9
F49.95238095238095
sg10
I1
sg11
F101505.24000742841
sbag2
(g3
g4
Ntp755
Rp756
(dp757
g8
F2.8571428571428577
sg9
F49.42857142857143
sg10
I1
sg11
F101505.2108594132
sbag2
(g3
g4
Ntp758
Rp759
(dp760
g8
F2.8571428571428577
sg9
F48.904761904761905
sg10
I1
sg11
F101505.18161076508
sbag2
(g3
g4
Ntp761
Rp762
(dp763
g8
F2.8571428571428577
sg9
F48.38095238095238
sg10
I1
sg11
F101505.15227187458
sbag2
(g3
g4
Ntp764
Rp765
(dp766
g8
F2.8571428571428577
sg9
F47.857142857142854
sg10
I1
sg11
F101505.12285376561
sbag2
(g3
g4
Ntp767
Rp768
(dp769
g8
F2.8571428571428577
sg9
F47.333333333333336
sg10
I1
sg11
F101505.09336811882
sbag2
(g3
g4
Ntp770
Rp771
(dp772
g8
F2.8571428571428577
sg9
F46.80952380952381
sg10
I1
sg11
F101505.06382729574
sbag2
(g3
g4
Ntp773
Rp774
(dp775
g8
F2.8571428571428577
sg9
F46.285714285714285
sg10
I1
sg11
F101505.0342443618
sbag2
(g3
g4
Ntp776
Rp777
(dp778
g8
F2.8571428571428577
sg9
F45.76190476190476
sg10
I1
sg11
F101505.00463311054
sbag2
(g3
g4
Ntp779
Rp780
(dp781
g8
F2.8571428571428577
sg9
F45.23809523809524
sg10
I1
sg11
F101504.97500808728
sbag2
(g3
g4
Ntp782
Rp783
(dp784
g8
F2.8571428571428577
sg9
F44.714285714285715
sg10
I1
sg11
F101504.94538461273
sbag2
(g3
g4
Ntp785
Rp786
(dp787
g8
F2.8571428571428577
sg9
F44.19047619047619
sg10
I1
sg11
F101504.91577880642
sbag2
(g3
g4
Ntp788
Rp789
(dp790
g8
F2.8571428571428577
sg9
F43.666666666666664
sg10
I1
sg11
F101504.88620760995
sbag2
(g3
g4
Ntp791
Rp792
(dp793
g8
F2.8571428571428577
sg9
F43.14285714285714
sg10
I1
sg11
F101504.85668880954
sbag2
(g3
g4
Ntp794
Rp795
(dp796
g8
F2.8571428571428577
sg9
F42.61904761904762
sg10
I1
sg11
F101504.82724105811
sbag2
(g3
g4
Ntp797
Rp798
(dp799
g8
F2.8571428571428577
sg9
F42.095238095238095
sg10
I1
sg11
F101504.79788389699
sbag2
(g3
g4
Ntp800
Rp801
(dp802
g8
F2.8571428571428577
sg9
F41.57142857142857
sg10
I1
sg11
F101504.76863777621
sbag2
(g3
g4
Ntp803
Rp804
(dp805
g8
F2.8571428571428577
sg9
F41.04761904761905
sg10
I1
sg11
F101504.73952407418
sbag2
(g3
g4
Ntp806
Rp807
(dp808
g8
F2.8571428571428577
sg9
F40.523809523809526
sg10
I1
sg11
F101504.71056511576
sbag2
(g3
g4
Ntp809
Rp810
(dp811
g8
F2.8571428571428577
sg9
F40.0
sg10
I1
sg11
F101504.6817841899
sbaa(lp812
g2
(g3
g4
Ntp813
Rp814
(dp815
g8
F3.571428571428571
sg9
F51.0
sg10
I1
sg11
F101505.2695965023
sbag2
(g3
g4
Ntp816
Rp817
(dp818
g8
F3.571428571428571
sg9
F50.476190476190474
sg10
I1
sg11
F101505.23982449283
sbag2
(g3
g4
Ntp819
Rp820
(dp821
g8
F3.571428571428571
sg9
F49.95238095238095
sg10
I1
sg11
F101505.20991307432
sbag2
(g3
g4
Ntp822
Rp823
(dp824
g8
F3.571428571428571
sg9
F49.42857142857143
sg10
I1
sg11
F101505.17987123299
sbag2
(g3
g4
Ntp825
Rp826
(dp827
g8
F3.571428571428571
sg9
F48.904761904761905
sg10
I1
sg11
F101505.14970856132
sbag2
(g3
g4
Ntp828
Rp829
(dp830
g8
F3.571428571428571
sg9
F48.38095238095238
sg10
I1
sg11
F101505.11943528302
sbag2
(g3
g4
Ntp831
Rp832
(dp833
g8
F3.571428571428571
sg9
F47.857142857142854
sg10
I1
sg11
F101505.08906227796
sbag2
(g3
g4
Ntp834
Rp835
(dp836
g8
F3.571428571428571
sg9
F47.333333333333336
sg10
I1
sg11
F101505.05860110809
sbag2
(g3
g4
Ntp837
Rp838
(dp839
g8
F3.571428571428571
sg9
F46.80952380952381
sg10
I1
sg11
F101505.02806404304
sbag2
(g3
g4
Ntp840
Rp841
(dp842
g8
F3.571428571428571
sg9
F46.285714285714285
sg10
I1
sg11
F101504.99746408622
sbag2
(g3
g4
Ntp843
Rp844
(dp845
g8
F3.571428571428571
sg9
F45.76190476190476
sg10
I1
sg11
F101504.96681500155
sbag2
(g3
g4
Ntp846
Rp847
(dp848
g8
F3.571428571428571
sg9
F45.23809523809524
sg10
I1
sg11
F101504.9361313394
sbag2
(g3
g4
Ntp849
Rp850
(dp851
g8
F3.571428571428571
sg9
F44.714285714285715
sg10
I1
sg11
F101504.90542846329
sbag2
(g3
g4
Ntp852
Rp853
(dp854
g8
F3.571428571428571
sg9
F44.19047619047619
sg10
I1
sg11
F101504.87472257615
sbag2
(g3
g4
Ntp855
Rp856
(dp857
g8
F3.571428571428571
sg9
F43.666666666666664
sg10
I1
sg11
F101504.84403074661
sbag2
(g3
g4
Ntp858
Rp859
(dp860
g8
F3.571428571428571
sg9
F43.14285714285714
sg10
I1
sg11
F101504.81337093457
sbag2
(g3
g4
Ntp861
Rp862
(dp863
g8
F3.571428571428571
sg9
F42.61904761904762
sg10
I1
sg11
F101504.78276201674
sbag2
(g3
g4
Ntp864
Rp865
(dp866
g8
F3.571428571428571
sg9
F42.095238095238095
sg10
I1
sg11
F101504.75222381137
sbag2
(g3
g4
Ntp867
Rp868
(dp869
g8
F3.571428571428571
sg9
F41.57142857142857
sg10
I1
sg11
F101504.72177710228
sbag2
(g3
g4
Ntp870
Rp871
(dp872
g8
F3.571428571428571
sg9
F41.04761904761905
sg10
I1
sg11
F101504.6914436618
sbag2
(g3
g4
Ntp873
Rp874
(dp875
g8
F3.571428571428571
sg9
F40.523809523809526
sg10
I1
sg11
F101504.66124627292
sbag2
(g3
g4
Ntp876
Rp877
(dp878
g8
F3.571428571428571
sg9
F40.0
sg10
I1
sg11
F101504.63120874965
sbaa(lp879
g2
(g3
g4
Ntp880
Rp881
(dp882
g8
F4.2857142857142865
sg9
F51.0
sg10
I1
sg11
F101505.24146552697
sbag2
(g3
g4
Ntp883
Rp884
(dp885
g8
F4.2857142857142865
sg9
F50.476190476190474
sg10
I1
sg11
F101505.21082284438
sbag2
(g3
g4
Ntp886
Rp887
(dp888
g8
F4.2857142857142865
sg9
F49.95238095238095
sg10
I1
sg11
F101505.18001983761
sbag2
(g3
g4
Ntp889
Rp890
(dp891
g8
F4.2857142857142865
sg9
F49.42857142857143
sg10
I1
sg11
F101505.14906524074
sbag2
(g3
g4
Ntp892
Rp893
(dp894
g8
F4.2857142857142865
sg9
F48.904761904761905
sg10
I1
sg11
F101505.1179684122
sbag2
(g3
g4
Ntp895
Rp896
(dp897
g8
F4.2857142857142865
sg9
F48.38095238095238
sg10
I1
sg11
F101505.08673936116
sbag2
(g3
g4
Ntp898
Rp899
(dp900
g8
F4.2857142857142865
sg9
F47.857142857142854
sg10
I1
sg11
F101505.05538877555
sbag2
(g3
g4
Ntp901
Rp902
(dp903
g8
F4.2857142857142865
sg9
F47.333333333333336
sg10
I1
sg11
F101505.0239280494
sbag2
(g3
g4
Ntp904
Rp905
(dp906
g8
F4.2857142857142865
sg9
F46.80952380952381
sg10
I1
sg11
F101504.99236931106
sbag2
(g3
g4
Ntp907
Rp908
(dp909
g8
F4.2857142857142865
sg9
F46.285714285714285
sg10
I1
sg11
F101504.96072545252
sbag2
(g3
g4
Ntp910
Rp911
(dp912
g8
F4.2857142857142865
sg9
F45.76190476190476
sg10
I1
sg11
F101504.92901015774
sbag2
(g3
g4
Ntp913
Rp914
(dp915
g8
F4.2857142857142865
sg9
F45.23809523809524
sg10
I1
sg11
F101504.89723793247
sbag2
(g3
g4
Ntp916
Rp917
(dp918
g8
F4.2857142857142865
sg9
F44.714285714285715
sg10
I1
sg11
F101504.86542413342
sbag2
(g3
g4
Ntp919
Rp920
(dp921
g8
F4.2857142857142865
sg9
F44.19047619047619
sg10
I1
sg11
F101504.83358499737
sbag2
(g3
g4
Ntp922
Rp923
(dp924
g8
F4.2857142857142865
sg9
F43.666666666666664
sg10
I1
sg11
F101504.80173767133
sbag2
(g3
g4
Ntp925
Rp926
(dp927
g8
F4.2857142857142865
sg9
F43.14285714285714
sg10
I1
sg11
F101504.76990024095
sbag2
(g3
g4
Ntp928
Rp929
(dp930
g8
F4.2857142857142865
sg9
F42.61904761904762
sg10
I1
sg11
F101504.73809175997
sbag2
(g3
g4
Ntp931
Rp932
(dp933
g8
F4.2857142857142865
sg9
F42.095238095238095
sg10
I1
sg11
F101504.70633227837
sbag2
(g3
g4
Ntp934
Rp935
(dp936
g8
F4.2857142857142865
sg9
F41.57142857142857
sg10
I1
sg11
F101504.67464286997
sbag2
(g3
g4
Ntp937
Rp938
(dp939
g8
F4.2857142857142865
sg9
F41.04761904761905
sg10
I1
sg11
F101504.6430456598
sbag2
(g3
g4
Ntp940
Rp941
(dp942
g8
F4.2857142857142865
sg9
F40.523809523809526
sg10
I1
sg11
F101504.61156384961
sbag2
(g3
g4
Ntp943
Rp944
(dp945
g8
F4.2857142857142865
sg9
F40.0
sg10
I1
sg11
F101504.5802217428
sbaa(lp946
g2
(g3
g4
Ntp947
Rp948
(dp949
g8
F5.0
sg9
F51.0
sg10
I1
sg11
F101505.21360726474
sbag2
(g3
g4
Ntp950
Rp951
(dp952
g8
F5.0
sg9
F50.476190476190474
sg10
I1
sg11
F101505.18207769713
sbag2
(g3
g4
Ntp953
Rp954
(dp955
g8
F5.0
sg9
F49.95238095238095
sg10
I1
sg11
F101505.15036574723
sbag2
(g3
g4
Ntp956
Rp957
(dp958
g8
F5.0
sg9
F49.42857142857143
sg10
I1
sg11
F101505.11847984772
sbag2
(g3
g4
Ntp959
Rp960
(dp961
g8
F5.0
sg9
F48.904761904761905
sg10
I1
sg11
F101505.08642907187
sbag2
(g3
g4
Ntp962
Rp963
(dp964
g8
F5.0
sg9
F48.38095238095238
sg10
I1
sg11
F101505.05422316323
sbag2
(g3
g4
Ntp965
Rp966
(dp967
g8
F5.0
sg9
F47.857142857142854
sg10
I1
sg11
F101505.02187256448
sbag2
(g3
g4
Ntp968
Rp969
(dp970
g8
F5.0
sg9
F47.333333333333336
sg10
I1
sg11
F101504.98938844832
sbag2
(g3
g4
Ntp971
Rp972
(dp973
g8
F5.0
sg9
F46.80952380952381
sg10
I1
sg11
F101504.95678274812
sbag2
(g3
g4
Ntp974
Rp975
(dp976
g8
F5.0
sg9
F46.285714285714285
sg10
I1
sg11
F101504.92406818895
sbag2
(g3
g4
Ntp977
Rp978
(dp979
g8
F5.0
sg9
F45.76190476190476
sg10
I1
sg11
F101504.89125832013
sbag2
(g3
g4
Ntp980
Rp981
(dp982
g8
F5.0
sg9
F45.23809523809524
sg10
I1
sg11
F101504.85836754713
sbag2
(g3
g4
Ntp983
Rp984
(dp985
g8
F5.0
sg9
F44.714285714285715
sg10
I1
sg11
F101504.8254111638
sbag2
(g3
g4
Ntp986
Rp987
(dp988
g8
F5.0
sg9
F44.19047619047619
sg10
I1
sg11
F101504.79240538567
sbag2
(g3
g4
Ntp989
Rp990
(dp991
g8
F5.0
sg9
F43.666666666666664
sg10
I1
sg11
F101504.75936738285
sbag2
(g3
g4
Ntp992
Rp993
(dp994
g8
F5.0
sg9
F43.14285714285714
sg10
I1
sg11
F101504.72631531233
sbag2
(g3
g4
Ntp995
Rp996
(dp997
g8
F5.0
sg9
F42.61904761904762
sg10
I1
sg11
F101504.69326835117
sbag2
(g3
g4
Ntp998
Rp999
(dp1000
g8
F5.0
sg9
F42.095238095238095
sg10
I1
sg11
F101504.66024672842
sbag2
(g3
g4
Ntp1001
Rp1002
(dp1003
g8
F5.0
sg9
F41.57142857142857
sg10
I1
sg11
F101504.62727175752
sbag2
(g3
g4
Ntp1004
Rp1005
(dp1006
g8
F5.0
sg9
F41.04761904761905
sg10
I1
sg11
F101504.59436586678
sbag2
(g3
g4
Ntp1007
Rp1008
(dp1009
g8
F5.0
sg9
F40.523809523809526
sg10
I1
sg11
F101504.56155263034
sbag2
(g3
g4
Ntp1010
Rp1011
(dp1012
g8
F5.0
sg9
F40.0
sg10
I1
sg11
F101504.52885679685
sbaa(lp1013
g2
(g3
g4
Ntp1014
Rp1015
(dp1016
g8
F5.714285714285715
sg9
F51.0
sg10
I1
sg11
F101505.18606087733
sbag2
(g3
g4
Ntp1017
Rp1018
(dp1019
g8
F5.714285714285715
sg9
F50.476190476190474
sg10
I1
sg11
F101505.15362874963
sbag2
(g3
g4
Ntp1020
Rp1021
(dp1022
g8
F5.714285714285715
sg9
F49.95238095238095
sg10
I1
sg11
F101505.12099100935
sbag2
(g3
g4
Ntp1023
Rp1024
(dp1025
g8
F5.714285714285715
sg9
F49.42857142857143
sg10
I1
sg11
F101505.08815573389
sbag2
(g3
g4
Ntp1026
Rp1027
(dp1028
g8
F5.714285714285715
sg9
F48.904761904761905
sg10
I1
sg11
F101505.05513165705
sbag2
(g3
g4
Ntp1029
Rp1030
(dp1031
g8
F5.714285714285715
sg9
F48.38095238095238
sg10
I1
sg11
F101505.02192820028
sbag2
(g3
g4
Ntp1032
Rp1033
(dp1034
g8
F5.714285714285715
sg9
F47.857142857142854
sg10
I1
sg11
F101504.98855550437
sbag2
(g3
g4
Ntp1035
Rp1036
(dp1037
g8
F5.714285714285715
sg9
F47.333333333333336
sg10
I1
sg11
F101504.95502446215
sbag2
(g3
g4
Ntp1038
Rp1039
(dp1040
g8
F5.714285714285715
sg9
F46.80952380952381
sg10
I1
sg11
F101504.92134675226
sbag2
(g3
g4
Ntp1041
Rp1042
(dp1043
g8
F5.714285714285715
sg9
F46.285714285714285
sg10
I1
sg11
F101504.8875348734
sbag2
(g3
g4
Ntp1044
Rp1045
(dp1046
g8
F5.714285714285715
sg9
F45.76190476190476
sg10
I1
sg11
F101504.85360217869
sbag2
(g3
g4
Ntp1047
Rp1048
(dp1049
g8
F5.714285714285715
sg9
F45.23809523809524
sg10
I1
sg11
F101504.81956291177
sbag2
(g3
g4
Ntp1050
Rp1051
(dp1052
g8
F5.714285714285715
sg9
F44.714285714285715
sg10
I1
sg11
F101504.78543224212
sbag2
(g3
g4
Ntp1053
Rp1054
(dp1055
g8
F5.714285714285715
sg9
F44.19047619047619
sg10
I1
sg11
F101504.75122630181
sbag2
(g3
g4
Ntp1056
Rp1057
(dp1058
g8
F5.714285714285715
sg9
F43.666666666666664
sg10
I1
sg11
F101504.71696222179
sbag2
(g3
g4
Ntp1059
Rp1060
(dp1061
g8
F5.714285714285715
sg9
F43.14285714285714
sg10
I1
sg11
F101504.68265816884
sbag2
(g3
g4
Ntp1062
Rp1063
(dp1064
g8
F5.714285714285715
sg9
F42.61904761904762
sg10
I1
sg11
F101504.64833338214
sbag2
(g3
g4
Ntp1065
Rp1066
(dp1067
g8
F5.714285714285715
sg9
F42.095238095238095
sg10
I1
sg11
F101504.61400820993
sbag2
(g3
g4
Ntp1068
Rp1069
(dp1070
g8
F5.714285714285715
sg9
F41.57142857142857
sg10
I1
sg11
F101504.57970414589
sbag2
(g3
g4
Ntp1071
Rp1072
(dp1073
g8
F5.714285714285715
sg9
F41.04761904761905
sg10
I1
sg11
F101504.5454438649
sbag2
(g3
g4
Ntp1074
Rp1075
(dp1076
g8
F5.714285714285715
sg9
F40.523809523809526
sg10
I1
sg11
F101504.51125125788
sbag2
(g3
g4
Ntp1077
Rp1078
(dp1079
g8
F5.714285714285715
sg9
F40.0
sg10
I1
sg11
F101504.47715146649
sbaa(lp1080
g2
(g3
g4
Ntp1081
Rp1082
(dp1083
g8
F6.428571428571429
sg9
F51.0
sg10
I1
sg11
F101505.15886757361
sbag2
(g3
g4
Ntp1084
Rp1085
(dp1086
g8
F6.428571428571429
sg9
F50.476190476190474
sg10
I1
sg11
F101505.12551784239
sbag2
(g3
g4
Ntp1087
Rp1088
(dp1089
g8
F6.428571428571429
sg9
F49.95238095238095
sg10
I1
sg11
F101505.09193806844
sbag2
(g3
g4
Ntp1090
Rp1091
(dp1092
g8
F6.428571428571429
sg9
F49.42857142857143
sg10
I1
sg11
F101505.0581359169
sbag2
(g3
g4
Ntp1093
Rp1094
(dp1095
g8
F6.428571428571429
sg9
F48.904761904761905
sg10
I1
sg11
F101505.02411972324
sbag2
(g3
g4
Ntp1096
Rp1097
(dp1098
g8
F6.428571428571429
sg9
F48.38095238095238
sg10
I1
sg11
F101504.98989852628
sbag2
(g3
g4
Ntp1099
Rp1100
(dp1101
g8
F6.428571428571429
sg9
F47.857142857142854
sg10
I1
sg11
F101504.95548210283
sbag2
(g3
g4
Ntp1102
Rp1103
(dp1104
g8
F6.428571428571429
sg9
F47.333333333333336
sg10
I1
sg11
F101504.92088100272
sbag2
(g3
g4
Ntp1105
Rp1106
(dp1107
g8
F6.428571428571429
sg9
F46.80952380952381
sg10
I1
sg11
F101504.8861065853
sbag2
(g3
g4
Ntp1108
Rp1109
(dp1110
g8
F6.428571428571429
sg9
F46.285714285714285
sg10
I1
sg11
F101504.85117105642
sbag2
(g3
g4
Ntp1111
Rp1112
(dp1113
g8
F6.428571428571429
sg9
F45.76190476190476
sg10
I1
sg11
F101504.8160875066
sbag2
(g3
g4
Ntp1114
Rp1115
(dp1116
g8
F6.428571428571429
sg9
F45.23809523809524
sg10
I1
sg11
F101504.78086994942
sbag2
(g3
g4
Ntp1117
Rp1118
(dp1119
g8
F6.428571428571429
sg9
F44.714285714285715
sg10
I1
sg11
F101504.74553336162
sbag2
(g3
g4
Ntp1120
Rp1121
(dp1122
g8
F6.428571428571429
sg9
F44.19047619047619
sg10
I1
sg11
F101504.71009372245
sbag2
(g3
g4
Ntp1123
Rp1124
(dp1125
g8
F6.428571428571429
sg9
F43.666666666666664
sg10
I1
sg11
F101504.67456805448
sbag2
(g3
g4
Ntp1126
Rp1127
(dp1128
g8
F6.428571428571429
sg9
F43.14285714285714
sg10
I1
sg11
F101504.63897446469
sbag2
(g3
g4
Ntp1129
Rp1130
(dp1131
g8
F6.428571428571429
sg9
F42.61904761904762
sg10
I1
sg11
F101504.60333218523
sbag2
(g3
g4
Ntp1132
Rp1133
(dp1134
g8
F6.428571428571429
sg9
F42.095238095238095
sg10
I1
sg11
F101504.56766161491
sbag2
(g3
g4
Ntp1135
Rp1136
(dp1137
g8
F6.428571428571429
sg9
F41.57142857142857
sg10
I1
sg11
F101504.53198436019
sbag2
(g3
g4
Ntp1138
Rp1139
(dp1140
g8
F6.428571428571429
sg9
F41.04761904761905
sg10
I1
sg11
F101504.49632327605
sbag2
(g3
g4
Ntp1141
Rp1142
(dp1143
g8
F6.428571428571429
sg9
F40.523809523809526
sg10
I1
sg11
F101504.46070250601
sbag2
(g3
g4
Ntp1144
Rp1145
(dp1146
g8
F6.428571428571429
sg9
F40.0
sg10
I1
sg11
F101504.42514752196
sbaa(lp1147
g2
(g3
g4
Ntp1148
Rp1149
(dp1150
g8
F7.142857142857142
sg9
F51.0
sg10
I1
sg11
F101505.13207065345
sbag2
(g3
g4
Ntp1151
Rp1152
(dp1153
g8
F7.142857142857142
sg9
F50.476190476190474
sg10
I1
sg11
F101505.09778900753
sbag2
(g3
g4
Ntp1154
Rp1155
(dp1156
g8
F7.142857142857142
sg9
F49.95238095238095
sg10
I1
sg11
F101505.06325166475
sbag2
(g3
g4
Ntp1157
Rp1158
(dp1159
g8
F7.142857142857142
sg9
F49.42857142857143
sg10
I1
sg11
F101505.02846581695
sbag2
(g3
g4
Ntp1160
Rp1161
(dp1162
g8
F7.142857142857142
sg9
F48.904761904761905
sg10
I1
sg11
F101504.99343933794
sbag2
(g3
g4
Ntp1163
Rp1164
(dp1165
g8
F7.142857142857142
sg9
F48.38095238095238
sg10
I1
sg11
F101504.95818081911
sbag2
(g3
g4
Ntp1166
Rp1167
(dp1168
g8
F7.142857142857142
sg9
F47.857142857142854
sg10
I1
sg11
F101504.92269960631
sbag2
(g3
g4
Ntp1169
Rp1170
(dp1171
g8
F7.142857142857142
sg9
F47.333333333333336
sg10
I1
sg11
F101504.88700583774
sbag2
(g3
g4
Ntp1172
Rp1173
(dp1174
g8
F7.142857142857142
sg9
F46.80952380952381
sg10
I1
sg11
F101504.85111048317
sbag2
(g3
g4
Ntp1175
Rp1176
(dp1177
g8
F7.142857142857142
sg9
F46.285714285714285
sg10
I1
sg11
F101504.81502538388
sbag2
(g3
g4
Ntp1178
Rp1179
(dp1180
g8
F7.142857142857142
sg9
F45.76190476190476
sg10
I1
sg11
F101504.77876329422
sbag2
(g3
g4
Ntp1181
Rp1182
(dp1183
g8
F7.142857142857142
sg9
F45.23809523809524
sg10
I1
sg11
F101504.74233792369
sbag2
(g3
g4
Ntp1184
Rp1185
(dp1186
g8
F7.142857142857142
sg9
F44.714285714285715
sg10
I1
sg11
F101504.70576397984
sbag2
(g3
g4
Ntp1187
Rp1188
(dp1189
g8
F7.142857142857142
sg9
F44.19047619047619
sg10
I1
sg11
F101504.66905721283
sbag2
(g3
g4
Ntp1190
Rp1191
(dp1192
g8
F7.142857142857142
sg9
F43.666666666666664
sg10
I1
sg11
F101504.6322344596
sbag2
(g3
g4
Ntp1193
Rp1194
(dp1195
g8
F7.142857142857142
sg9
F43.14285714285714
sg10
I1
sg11
F101504.59531368947
sbag2
(g3
g4
Ntp1196
Rp1197
(dp1198
g8
F7.142857142857142
sg9
F42.61904761904762
sg10
I1
sg11
F101504.55831404978
sbag2
(g3
g4
Ntp1199
Rp1200
(dp1201
g8
F7.142857142857142
sg9
F42.095238095238095
sg10
I1
sg11
F101504.52125591214
sbag2
(g3
g4
Ntp1202
Rp1203
(dp1204
g8
F7.142857142857142
sg9
F41.57142857142857
sg10
I1
sg11
F101504.48416091876
sbag2
(g3
g4
Ntp1205
Rp1206
(dp1207
g8
F7.142857142857142
sg9
F41.04761904761905
sg10
I1
sg11
F101504.44705202829
sbag2
(g3
g4
Ntp1208
Rp1209
(dp1210
g8
F7.142857142857142
sg9
F40.523809523809526
sg10
I1
sg11
F101504.40995356234
sbag2
(g3
g4
Ntp1211
Rp1212
(dp1213
g8
F7.142857142857142
sg9
F40.0
sg10
I1
sg11
F101504.37289125049
sbaa(lp1214
g2
(g3
g4
Ntp1215
Rp1216
(dp1217
g8
F7.857142857142858
sg9
F51.0
sg10
I1
sg11
F101505.10571554553
sbag2
(g3
g4
Ntp1218
Rp1219
(dp1220
g8
F7.857142857142858
sg9
F50.476190476190474
sg10
I1
sg11
F101505.07048851365
sbag2
(g3
g4
Ntp1221
Rp1222
(dp1223
g8
F7.857142857142858
sg9
F49.95238095238095
sg10
I1
sg11
F101505.03497888621
sbag2
(g3
g4
Ntp1224
Rp1225
(dp1226
g8
F7.857142857142858
sg9
F49.42857142857143
sg10
I1
sg11
F101504.99919331643
sbag2
(g3
g4
Ntp1227
Rp1228
(dp1229
g8
F7.857142857142858
sg9
F48.904761904761905
sg10
I1
sg11
F101504.96313914888
sbag2
(g3
g4
Ntp1230
Rp1231
(dp1232
g8
F7.857142857142858
sg9
F48.38095238095238
sg10
I1
sg11
F101504.92682445793
sbag2
(g3
g4
Ntp1233
Rp1234
(dp1235
g8
F7.857142857142858
sg9
F47.857142857142854
sg10
I1
sg11
F101504.89025808661
sbag2
(g3
g4
Ntp1236
Rp1237
(dp1238
g8
F7.857142857142858
sg9
F47.333333333333336
sg10
I1
sg11
F101504.85344968735
sbag2
(g3
g4
Ntp1239
Rp1240
(dp1241
g8
F7.857142857142858
sg9
F46.80952380952381
sg10
I1
sg11
F101504.81640976437
sbag2
(g3
g4
Ntp1242
Rp1243
(dp1244
g8
F7.857142857142858
sg9
F46.285714285714285
sg10
I1
sg11
F101504.77914971625
sbag2
(g3
g4
Ntp1245
Rp1246
(dp1247
g8
F7.857142857142858
sg9
F45.76190476190476
sg10
I1
sg11
F101504.74168188129
sbag2
(g3
g4
Ntp1248
Rp1249
(dp1250
g8
F7.857142857142858
sg9
F45.23809523809524
sg10
I1
sg11
F101504.70401958303
sbag2
(g3
g4
Ntp1251
Rp1252
(dp1253
g8
F7.857142857142858
sg9
F44.714285714285715
sg10
I1
sg11
F101504.66617717713
sbag2
(g3
g4
Ntp1254
Rp1255
(dp1256
g8
F7.857142857142858
sg9
F44.19047619047619
sg10
I1
sg11
F101504.62817009969
sbag2
(g3
g4
Ntp1257
Rp1258
(dp1259
g8
F7.857142857142858
sg9
F43.666666666666664
sg10
I1
sg11
F101504.59001491647
sbag2
(g3
g4
Ntp1260
Rp1261
(dp1262
g8
F7.857142857142858
sg9
F43.14285714285714
sg10
I1
sg11
F101504.5517293724
sbag2
(g3
g4
Ntp1263
Rp1264
(dp1265
g8
F7.857142857142858
sg9
F42.61904761904762
sg10
I1
sg11
F101504.51333244283
sbag2
(g3
g4
Ntp1266
Rp1267
(dp1268
g8
F7.857142857142858
sg9
F42.095238095238095
sg10
I1
sg11
F101504.47484438484
sbag2
(g3
g4
Ntp1269
Rp1270
(dp1271
g8
F7.857142857142858
sg9
F41.57142857142857
sg10
I1
sg11
F101504.43628678867
sbag2
(g3
g4
Ntp1272
Rp1273
(dp1274
g8
F7.857142857142858
sg9
F41.04761904761905
sg10
I1
sg11
F101504.3976826302
sbag2
(g3
g4
Ntp1275
Rp1276
(dp1277
g8
F7.857142857142858
sg9
F40.523809523809526
sg10
I1
sg11
F101504.35905632294
sbag2
(g3
g4
Ntp1278
Rp1279
(dp1280
g8
F7.857142857142858
sg9
F40.0
sg10
I1
sg11
F101504.32043376952
sbaa(lp1281
g2
(g3
g4
Ntp1282
Rp1283
(dp1284
g8
F8.571428571428571
sg9
F51.0
sg10
I1
sg11
F101505.07984983858
sbag2
(g3
g4
Ntp1285
Rp1286
(dp1287
g8
F8.571428571428571
sg9
F50.476190476190474
sg10
I1
sg11
F101505.04366490414
sbag2
(g3
g4
Ntp1288
Rp1289
(dp1290
g8
F8.571428571428571
sg9
F49.95238095238095
sg10
I1
sg11
F101505.00716921408
sbag2
(g3
g4
Ntp1291
Rp1292
(dp1293
g8
F8.571428571428571
sg9
F49.42857142857143
sg10
I1
sg11
F101504.97036881356
sbag2
(g3
g4
Ntp1294
Rp1295
(dp1296
g8
F8.571428571428571
sg9
F48.904761904761905
sg10
I1
sg11
F101504.93327044629
sbag2
(g3
g4
Ntp1297
Rp1298
(dp1299
g8
F8.571428571428571
sg9
F48.38095238095238
sg10
I1
sg11
F101504.89588159489
sbag2
(g3
g4
Ntp1300
Rp1301
(dp1302
g8
F8.571428571428571
sg9
F47.857142857142854
sg10
I1
sg11
F101504.8582105226
sbag2
(g3
g4
Ntp1303
Rp1304
(dp1305
g8
F8.571428571428571
sg9
F47.333333333333336
sg10
I1
sg11
F101504.82026631659
sbag2
(g3
g4
Ntp1306
Rp1307
(dp1308
g8
F8.571428571428571
sg9
F46.80952380952381
sg10
I1
sg11
F101504.7820589333
sbag2
(g3
g4
Ntp1309
Rp1310
(dp1311
g8
F8.571428571428571
sg9
F46.285714285714285
sg10
I1
sg11
F101504.74359924426
sbag2
(g3
g4
Ntp1312
Rp1313
(dp1314
g8
F8.571428571428571
sg9
F45.76190476190476
sg10
I1
sg11
F101504.70489908497
sbag2
(g3
g4
Ntp1315
Rp1316
(dp1317
g8
F8.571428571428571
sg9
F45.23809523809524
sg10
I1
sg11
F101504.66597130382
sbag2
(g3
g4
Ntp1318
Rp1319
(dp1320
g8
F8.571428571428571
sg9
F44.714285714285715
sg10
I1
sg11
F101504.62682981357
sbag2
(g3
g4
Ntp1321
Rp1322
(dp1323
g8
F8.571428571428571
sg9
F44.19047619047619
sg10
I1
sg11
F101504.5874896435
sbag2
(g3
g4
Ntp1324
Rp1325
(dp1326
g8
F8.571428571428571
sg9
F43.666666666666664
sg10
I1
sg11
F101504.54796699315
sbag2
(g3
g4
Ntp1327
Rp1328
(dp1329
g8
F8.571428571428571
sg9
F43.14285714285714
sg10
I1
sg11
F101504.50827928745
sbag2
(g3
g4
Ntp1330
Rp1331
(dp1332
g8
F8.571428571428571
sg9
F42.61904761904762
sg10
I1
sg11
F101504.46844523252
sbag2
(g3
g4
Ntp1333
Rp1334
(dp1335
g8
F8.571428571428571
sg9
F42.095238095238095
sg10
I1
sg11
F101504.42848487262
sbag2
(g3
g4
Ntp1336
Rp1337
(dp1338
g8
F8.571428571428571
sg9
F41.57142857142857
sg10
I1
sg11
F101504.38841964792
sbag2
(g3
g4
Ntp1339
Rp1340
(dp1341
g8
F8.571428571428571
sg9
F41.04761904761905
sg10
I1
sg11
F101504.34827245281
sbag2
(g3
g4
Ntp1342
Rp1343
(dp1344
g8
F8.571428571428571
sg9
F40.523809523809526
sg10
I1
sg11
F101504.30806769457
sbag2
(g3
g4
Ntp1345
Rp1346
(dp1347
g8
F8.571428571428571
sg9
F40.0
sg10
I1
sg11
F101504.26783135212
sbaa(lp1348
g2
(g3
g4
Ntp1349
Rp1350
(dp1351
g8
F9.285714285714286
sg9
F51.0
sg10
I1
sg11
F101505.05452330555
sbag2
(g3
g4
Ntp1352
Rp1353
(dp1354
g8
F9.285714285714286
sg9
F50.476190476190474
sg10
I1
sg11
F101505.01736902802
sbag2
(g3
g4
Ntp1355
Rp1356
(dp1357
g8
F9.285714285714286
sg9
F49.95238095238095
sg10
I1
sg11
F101504.97987456119
sbag2
(g3
g4
Ntp1358
Rp1359
(dp1360
g8
F9.285714285714286
sg9
F49.42857142857143
sg10
I1
sg11
F101504.942045269
sbag2
(g3
g4
Ntp1361
Rp1362
(dp1363
g8
F9.285714285714286
sg9
F48.904761904761905
sg10
I1
sg11
F101504.90388721786
sbag2
(g3
g4
Ntp1364
Rp1365
(dp1366
g8
F9.285714285714286
sg9
F48.38095238095238
sg10
I1
sg11
F101504.86540721942
sbag2
(g3
g4
Ntp1367
Rp1368
(dp1369
g8
F9.285714285714286
sg9
F47.857142857142854
sg10
I1
sg11
F101504.826612875
sbag2
(g3
g4
Ntp1370
Rp1371
(dp1372
g8
F9.285714285714286
sg9
F47.333333333333336
sg10
I1
sg11
F101504.78751262109
sbag2
(g3
g4
Ntp1373
Rp1374
(dp1375
g8
F9.285714285714286
sg9
F46.80952380952381
sg10
I1
sg11
F101504.74811577803
sbag2
(g3
g4
Ntp1376
Rp1377
(dp1378
g8
F9.285714285714286
sg9
F46.285714285714285
sg10
I1
sg11
F101504.70843259945
sbag2
(g3
g4
Ntp1379
Rp1380
(dp1381
g8
F9.285714285714286
sg9
F45.76190476190476
sg10
I1
sg11
F101504.66847432376
sbag2
(g3
g4
Ntp1382
Rp1383
(dp1384
g8
F9.285714285714286
sg9
F45.23809523809524
sg10
I1
sg11
F101504.628253228
sbag2
(g3
g4
Ntp1385
Rp1386
(dp1387
g8
F9.285714285714286
sg9
F44.714285714285715
sg10
I1
sg11
F101504.58778268241
sbag2
(g3
g4
Ntp1388
Rp1389
(dp1390
g8
F9.285714285714286
sg9
F44.19047619047619
sg10
I1
sg11
F101504.54707720778
sbag2
(g3
g4
Ntp1391
Rp1392
(dp1393
g8
F9.285714285714286
sg9
F43.666666666666664
sg10
I1
sg11
F101504.5061525338
sbag2
(g3
g4
Ntp1394
Rp1395
(dp1396
g8
F9.285714285714286
sg9
F43.14285714285714
sg10
I1
sg11
F101504.46502565897
sbag2
(g3
g4
Ntp1397
Rp1398
(dp1399
g8
F9.285714285714286
sg9
F42.61904761904762
sg10
I1
sg11
F101504.4237149124
sbag2
(g3
g4
Ntp1400
Rp1401
(dp1402
g8
F9.285714285714286
sg9
F42.095238095238095
sg10
I1
sg11
F101504.38224001655
sbag2
(g3
g4
Ntp1403
Rp1404
(dp1405
g8
F9.285714285714286
sg9
F41.57142857142857
sg10
I1
sg11
F101504.3406221511
sbag2
(g3
g4
Ntp1406
Rp1407
(dp1408
g8
F9.285714285714286
sg9
F41.04761904761905
sg10
I1
sg11
F101504.29888401771
sbag2
(g3
g4
Ntp1409
Rp1410
(dp1411
g8
F9.285714285714286
sg9
F40.523809523809526
sg10
I1
sg11
F101504.25704990658
sbag2
(g3
g4
Ntp1412
Rp1413
(dp1414
g8
F9.285714285714286
sg9
F40.0
sg10
I1
sg11
F101504.21514576174
sbaa(lp1415
g2
(g3
g4
Ntp1416
Rp1417
(dp1418
g8
F10.0
sg9
F51.0
sg10
I1
sg11
F101505.02978791906
sbag2
(g3
g4
Ntp1419
Rp1420
(dp1421
g8
F10.0
sg9
F50.476190476190474
sg10
I1
sg11
F101504.99165406197
sbag2
(g3
g4
Ntp1422
Rp1423
(dp1424
g8
F10.0
sg9
F49.95238095238095
sg10
I1
sg11
F101504.95314930179
sbag2
(g3
g4
Ntp1425
Rp1426
(dp1427
g8
F10.0
sg9
F49.42857142857143
sg10
I1
sg11
F101504.91427824355
sbag2
(g3
g4
Ntp1428
Rp1429
(dp1430
g8
F10.0
sg9
F48.904761904761905
sg10
I1
sg11
F101504.87504619587
sbag2
(g3
g4
Ntp1431
Rp1432
(dp1433
g8
F10.0
sg9
F48.38095238095238
sg10
I1
sg11
F101504.83545921528
sbag2
(g3
g4
Ntp1434
Rp1435
(dp1436
g8
F10.0
sg9
F47.857142857142854
sg10
I1
sg11
F101504.79552415332
sbag2
(g3
g4
Ntp1437
Rp1438
(dp1439
g8
F10.0
sg9
F47.333333333333336
sg10
I1
sg11
F101504.75524870506
sbag2
(g3
g4
Ntp1440
Rp1441
(dp1442
g8
F10.0
sg9
F46.80952380952381
sg10
I1
sg11
F101504.71464146048
sbag2
(g3
g4
Ntp1443
Rp1444
(dp1445
g8
F10.0
sg9
F46.285714285714285
sg10
I1
sg11
F101504.67371195699
sbag2
(g3
g4
Ntp1446
Rp1447
(dp1448
g8
F10.0
sg9
F45.76190476190476
sg10
I1
sg11
F101504.63247073519
sbag2
(g3
g4
Ntp1449
Rp1450
(dp1451
g8
F10.0
sg9
F45.23809523809524
sg10
I1
sg11
F101504.5909293957
sbag2
(g3
g4
Ntp1452
Rp1453
(dp1454
g8
F10.0
sg9
F44.714285714285715
sg10
I1
sg11
F101504.54910065867
sbag2
(g3
g4
Ntp1455
Rp1456
(dp1457
g8
F10.0
sg9
F44.19047619047619
sg10
I1
sg11
F101504.50699842557
sbag2
(g3
g4
Ntp1458
Rp1459
(dp1460
g8
F10.0
sg9
F43.666666666666664
sg10
I1
sg11
F101504.4646378423
sbag2
(g3
g4
Ntp1461
Rp1462
(dp1463
g8
F10.0
sg9
F43.14285714285714
sg10
I1
sg11
F101504.42203536458
sbag2
(g3
g4
Ntp1464
Rp1465
(dp1466
g8
F10.0
sg9
F42.61904761904762
sg10
I1
sg11
F101504.3792088256
sbag2
(g3
g4
Ntp1467
Rp1468
(dp1469
g8
F10.0
sg9
F42.095238095238095
sg10
I1
sg11
F101504.33617750449
sbag2
(g3
g4
Ntp1470
Rp1471
(dp1472
g8
F10.0
sg9
F41.57142857142857
sg10
I1
sg11
F101504.29296219748
sbag2
(g3
g4
Ntp1473
Rp1474
(dp1475
g8
F10.0
sg9
F41.04761904761905
sg10
I1
sg11
F101504.24958528957
sbag2
(g3
g4
Ntp1476
Rp1477
(dp1478
g8
F10.0
sg9
F40.523809523809526
sg10
I1
sg11
F101504.20607082798
sbag2
(g3
g4
Ntp1479
Rp1480
(dp1481
g8
F10.0
sg9
F40.0
sg10
I1
sg11
F101504.16244459615
sbaa.