(lp0
(lp1
ccopy_reg
_reconstructor
p2
(clibPoint
Point_C
p3
c__builtin__
object
p4
Ntp5
Rp6
(dp7
S'y'
p8
F-5.0
sS'x'
p9
F51.0
sS'mu'
p10
I1
sS'val'
p11
F12523.662420050385
sbag2
(g3
g4
Ntp12
Rp13
(dp14
g8
F-5.0
sg9
F50.0
sg10
I1
sg11
F12526.843721221847
sbag2
(g3
g4
Ntp15
Rp16
(dp17
g8
F-5.0
sg9
F49.0
sg10
I1
sg11
F12530.04480903215
sbag2
(g3
g4
Ntp18
Rp19
(dp20
g8
F-5.0
sg9
F48.0
sg10
I1
sg11
F12533.262441833207
sbag2
(g3
g4
Ntp21
Rp22
(dp23
g8
F-5.0
sg9
F47.0
sg10
I1
sg11
F12536.4930697588
sbag2
(g3
g4
Ntp24
Rp25
(dp26
g8
F-5.0
sg9
F46.0
sg10
I1
sg11
F12539.732820643672
sbag2
(g3
g4
Ntp27
Rp28
(dp29
g8
F-5.0
sg9
F45.0
sg10
I1
sg11
F12542.97748661868
sbag2
(g3
g4
Ntp30
Rp31
(dp32
g8
F-5.0
sg9
F44.0
sg10
I1
sg11
F12546.222511623651
sbag2
(g3
g4
Ntp33
Rp34
(dp35
g8
F-5.0
sg9
F43.0
sg10
I1
sg11
F12549.462980105702
sbag2
(g3
g4
Ntp36
Rp37
(dp38
g8
F-5.0
sg9
F42.0
sg10
I1
sg11
F12552.693607197933
sbag2
(g3
g4
Ntp39
Rp40
(dp41
g8
F-5.0
sg9
F41.0
sg10
I1
sg11
F12555.90873069867
sbag2
(g3
g4
Ntp42
Rp43
(dp44
g8
F-5.0
sg9
F40.0
sg10
I1
sg11
F12559.102305195527
sbaa(lp45
g2
(g3
g4
Ntp46
Rp47
(dp48
g8
F-3.6363636363636367
sg9
F51.0
sg10
I1
sg11
F12526.12986285426
sbag2
(g3
g4
Ntp49
Rp50
(dp51
g8
F-3.6363636363636367
sg9
F50.0
sg10
I1
sg11
F12529.460602688383
sbag2
(g3
g4
Ntp52
Rp53
(dp54
g8
F-3.6363636363636367
sg9
F49.0
sg10
I1
sg11
F12532.816656198034
sbag2
(g3
g4
Ntp55
Rp56
(dp57
g8
F-3.6363636363636367
sg9
F48.0
sg10
I1
sg11
F12536.194794814623
sbag2
(g3
g4
Ntp58
Rp59
(dp60
g8
F-3.6363636363636367
sg9
F47.0
sg10
I1
sg11
F12539.591456099959
sbag2
(g3
g4
Ntp61
Rp62
(dp63
g8
F-3.6363636363636367
sg9
F46.0
sg10
I1
sg11
F12543.00272654428
sbag2
(g3
g4
Ntp64
Rp65
(dp66
g8
F-3.6363636363636367
sg9
F45.0
sg10
I1
sg11
F12546.424324890691
sbag2
(g3
g4
Ntp67
Rp68
(dp69
g8
F-3.6363636363636367
sg9
F44.0
sg10
I1
sg11
F12549.851586250432
sbag2
(g3
g4
Ntp70
Rp71
(dp72
g8
F-3.6363636363636367
sg9
F43.0
sg10
I1
sg11
F12553.279447306948
sbag2
(g3
g4
Ntp73
Rp74
(dp75
g8
F-3.6363636363636367
sg9
F42.0
sg10
I1
sg11
F12556.702432940674
sbag2
(g3
g4
Ntp76
Rp77
(dp78
g8
F-3.6363636363636367
sg9
F41.0
sg10
I1
sg11
F12560.114644640951
sbag2
(g3
g4
Ntp79
Rp80
(dp81
g8
F-3.6363636363636367
sg9
F40.0
sg10
I1
sg11
F12563.509751103838
sbaa(lp82
g2
(g3
g4
Ntp83
Rp84
(dp85
g8
F-2.272727272727273
sg9
F51.0
sg10
I1
sg11
F12528.54991268841
sbag2
(g3
g4
Ntp86
Rp87
(dp88
g8
F-2.272727272727273
sg9
F50.0
sg10
I1
sg11
F12532.035734311998
sbag2
(g3
g4
Ntp89
Rp90
(dp91
g8
F-2.272727272727273
sg9
F49.0
sg10
I1
sg11
F12535.552995219547
sbag2
(g3
g4
Ntp92
Rp93
(dp94
g8
F-2.272727272727273
sg9
F48.0
sg10
I1
sg11
F12539.09851281498
sbag2
(g3
g4
Ntp95
Rp96
(dp97
g8
F-2.272727272727273
sg9
F47.0
sg10
I1
sg11
F12542.668744425773
sbag2
(g3
g4
Ntp98
Rp99
(dp100
g8
F-2.272727272727273
sg9
F46.0
sg10
I1
sg11
F12546.259766544506
sbag2
(g3
g4
Ntp101
Rp102
(dp103
g8
F-2.272727272727273
sg9
F45.0
sg10
I1
sg11
F12549.867254386207
sbag2
(g3
g4
Ntp104
Rp105
(dp106
g8
F-2.272727272727273
sg9
F44.0
sg10
I1
sg11
F12553.486462046629
sbag2
(g3
g4
Ntp107
Rp108
(dp109
g8
F-2.272727272727273
sg9
F43.0
sg10
I1
sg11
F12557.112203587725
sbag2
(g3
g4
Ntp110
Rp111
(dp112
g8
F-2.272727272727273
sg9
F42.0
sg10
I1
sg11
F12560.738835420603
sbag2
(g3
g4
Ntp113
Rp114
(dp115
g8
F-2.272727272727273
sg9
F41.0
sg10
I1
sg11
F12564.360240399494
sbag2
(g3
g4
Ntp116
Rp117
(dp118
g8
F-2.272727272727273
sg9
F40.0
sg10
I1
sg11
F12567.969814084876
sbaa(lp119
g2
(g3
g4
Ntp120
Rp121
(dp122
g8
F-0.9090909090909092
sg9
F51.0
sg10
I1
sg11
F12530.911633397596
sbag2
(g3
g4
Ntp123
Rp124
(dp125
g8
F-0.9090909090909092
sg9
F50.0
sg10
I1
sg11
F12534.558073818689
sbag2
(g3
g4
Ntp126
Rp127
(dp128
g8
F-0.9090909090909092
sg9
F49.0
sg10
I1
sg11
F12538.242721718965
sbag2
(g3
g4
Ntp129
Rp130
(dp131
g8
F-0.9090909090909092
sg9
F48.0
sg10
I1
sg11
F12541.962479656122
sbag2
(g3
g4
Ntp132
Rp133
(dp134
g8
F-0.9090909090909092
sg9
F47.0
sg10
I1
sg11
F12545.713863770223
sbag2
(g3
g4
Ntp135
Rp136
(dp137
g8
F-0.9090909090909092
sg9
F46.0
sg10
I1
sg11
F12549.49297900761
sbag2
(g3
g4
Ntp138
Rp139
(dp140
g8
F-0.9090909090909092
sg9
F45.0
sg10
I1
sg11
F12553.29549437602
sbag2
(g3
g4
Ntp141
Rp142
(dp143
g8
F-0.9090909090909092
sg9
F44.0
sg10
I1
sg11
F12557.116618532218
sbag2
(g3
g4
Ntp144
Rp145
(dp146
g8
F-0.9090909090909092
sg9
F43.0
sg10
I1
sg11
F12560.95107605428
sbag2
(g3
g4
Ntp147
Rp148
(dp149
g8
F-0.9090909090909092
sg9
F42.0
sg10
I1
sg11
F12564.793084804283
sbag2
(g3
g4
Ntp150
Rp151
(dp152
g8
F-0.9090909090909092
sg9
F41.0
sg10
I1
sg11
F12568.636334843475
sbag2
(g3
g4
Ntp153
Rp154
(dp155
g8
F-0.9090909090909092
sg9
F40.0
sg10
I1
sg11
F12572.473969419118
sbaa(lp156
g2
(g3
g4
Ntp157
Rp158
(dp159
g8
F0.45454545454545414
sg9
F51.0
sg10
I1
sg11
F12533.202988103318
sbag2
(g3
g4
Ntp160
Rp161
(dp162
g8
F0.45454545454545414
sg9
F50.0
sg10
I1
sg11
F12537.015408001364
sbag2
(g3
g4
Ntp163
Rp164
(dp165
g8
F0.45454545454545414
sg9
F49.0
sg10
I1
sg11
F12540.87348990404
sbag2
(g3
g4
Ntp166
Rp167
(dp168
g8
F0.45454545454545414
sg9
F48.0
sg10
I1
sg11
F12544.77426774045
sbag2
(g3
g4
Ntp169
Rp170
(dp171
g8
F0.45454545454545414
sg9
F47.0
sg10
I1
sg11
F12548.714363097484
sbag2
(g3
g4
Ntp172
Rp173
(dp174
g8
F0.45454545454545414
sg9
F46.0
sg10
I1
sg11
F12552.689955948621
sbag2
(g3
g4
Ntp175
Rp176
(dp177
g8
F0.45454545454545414
sg9
F45.0
sg10
I1
sg11
F12556.69675504076
sbag2
(g3
g4
Ntp178
Rp179
(dp180
g8
F0.45454545454545414
sg9
F44.0
sg10
I1
sg11
F12560.729968249861
sbag2
(g3
g4
Ntp181
Rp182
(dp183
g8
F0.45454545454545414
sg9
F43.0
sg10
I1
sg11
F12564.78427327727
sbag2
(g3
g4
Ntp184
Rp185
(dp186
g8
F0.45454545454545414
sg9
F42.0
sg10
I1
sg11
F12568.85378912398
sbag2
(g3
g4
Ntp187
Rp188
(dp189
g8
F0.45454545454545414
sg9
F41.0
sg10
I1
sg11
F12572.932048850498
sbag2
(g3
g4
Ntp190
Rp191
(dp192
g8
F0.45454545454545414
sg9
F40.0
sg10
I1
sg11
F12577.011974202695
sbaa(lp193
g2
(g3
g4
Ntp194
Rp195
(dp196
g8
F1.8181818181818175
sg9
F51.0
sg10
I1
sg11
F12535.410771153338
sbag2
(g3
g4
Ntp197
Rp198
(dp199
g8
F1.8181818181818175
sg9
F50.0
sg10
I1
sg11
F12539.394272823316
sbag2
(g3
g4
Ntp200
Rp201
(dp202
g8
F1.8181818181818175
sg9
F49.0
sg10
I1
sg11
F12543.431619820938
sbag2
(g3
g4
Ntp203
Rp204
(dp205
g8
F1.8181818181818175
sg9
F48.0
sg10
I1
sg11
F12547.52003146027
sbag2
(g3
g4
Ntp206
Rp207
(dp208
g8
F1.8181818181818175
sg9
F47.0
sg10
I1
sg11
F12551.656289909031
sbag2
(g3
g4
Ntp209
Rp210
(dp211
g8
F1.8181818181818175
sg9
F46.0
sg10
I1
sg11
F12555.836705942253
sbag2
(g3
g4
Ntp212
Rp213
(dp214
g8
F1.8181818181818175
sg9
F45.0
sg10
I1
sg11
F12560.057083876814
sbag2
(g3
g4
Ntp215
Rp216
(dp217
g8
F1.8181818181818175
sg9
F44.0
sg10
I1
sg11
F12564.31268599685
sbag2
(g3
g4
Ntp218
Rp219
(dp220
g8
F1.8181818181818175
sg9
F43.0
sg10
I1
sg11
F12568.598196852168
sbag2
(g3
g4
Ntp221
Rp222
(dp223
g8
F1.8181818181818175
sg9
F42.0
sg10
I1
sg11
F12572.90768789023
sbag2
(g3
g4
Ntp224
Rp225
(dp226
g8
F1.8181818181818175
sg9
F41.0
sg10
I1
sg11
F12577.234582968533
sbag2
(g3
g4
Ntp227
Rp228
(dp229
g8
F1.8181818181818175
sg9
F40.0
sg10
I1
sg11
F12581.571625385763
sbaa(lp230
g2
(g3
g4
Ntp231
Rp232
(dp233
g8
F3.1818181818181817
sg9
F51.0
sg10
I1
sg11
F12537.520543604149
sbag2
(g3
g4
Ntp234
Rp235
(dp236
g8
F3.1818181818181817
sg9
F50.0
sg10
I1
sg11
F12541.679875914755
sbag2
(g3
g4
Ntp237
Rp238
(dp239
g8
F3.1818181818181817
sg9
F49.0
sg10
I1
sg11
F12545.902005606464
sbag2
(g3
g4
Ntp240
Rp241
(dp242
g8
F3.1818181818181817
sg9
F48.0
sg10
I1
sg11
F12550.184399932847
sbag2
(g3
g4
Ntp243
Rp244
(dp245
g8
F3.1818181818181817
sg9
F47.0
sg10
I1
sg11
F12554.524066197582
sbag2
(g3
g4
Ntp246
Rp247
(dp248
g8
F3.1818181818181817
sg9
F46.0
sg10
I1
sg11
F12558.917512070435
sbag2
(g3
g4
Ntp249
Rp250
(dp251
g8
F3.1818181818181817
sg9
F45.0
sg10
I1
sg11
F12563.360704486444
sbag2
(g3
g4
Ntp252
Rp253
(dp254
g8
F3.1818181818181817
sg9
F44.0
sg10
I1
sg11
F12567.849027423865
sbag2
(g3
g4
Ntp255
Rp256
(dp257
g8
F3.1818181818181817
sg9
F43.0
sg10
I1
sg11
F12572.377238938745
sbag2
(g3
g4
Ntp258
Rp259
(dp260
g8
F3.1818181818181817
sg9
F42.0
sg10
I1
sg11
F12576.939427927186
sbag2
(g3
g4
Ntp261
Rp262
(dp263
g8
F3.1818181818181817
sg9
F41.0
sg10
I1
sg11
F12581.528971189422
sbag2
(g3
g4
Ntp264
Rp265
(dp266
g8
F3.1818181818181817
sg9
F40.0
sg10
I1
sg11
F12586.138491483276
sbaa(lp267
g2
(g3
g4
Ntp268
Rp269
(dp270
g8
F4.545454545454545
sg9
F51.0
sg10
I1
sg11
F12539.516574495168
sbag2
(g3
g4
Ntp271
Rp272
(dp273
g8
F4.545454545454545
sg9
F50.0
sg10
I1
sg11
F12543.856023782997
sbag2
(g3
g4
Ntp274
Rp275
(dp276
g8
F4.545454545454545
sg9
F49.0
sg10
I1
sg11
F12548.268027087994
sbag2
(g3
g4
Ntp277
Rp278
(dp279
g8
F4.545454545454545
sg9
F48.0
sg10
I1
sg11
F12552.750371393166
sbag2
(g3
g4
Ntp280
Rp281
(dp282
g8
F4.545454545454545
sg9
F47.0
sg10
I1
sg11
F12557.300364009456
sbag2
(g3
g4
Ntp283
Rp284
(dp285
g8
F4.545454545454545
sg9
F46.0
sg10
I1
sg11
F12561.914787034853
sbag2
(g3
g4
Ntp286
Rp287
(dp288
g8
F4.545454545454545
sg9
F45.0
sg10
I1
sg11
F12566.589849663445
sbag2
(g3
g4
Ntp289
Rp290
(dp291
g8
F4.545454545454545
sg9
F44.0
sg10
I1
sg11
F12571.32113860586
sbag2
(g3
g4
Ntp292
Rp293
(dp294
g8
F4.545454545454545
sg9
F43.0
sg10
I1
sg11
F12576.1035669751
sbag2
(g3
g4
Ntp295
Rp296
(dp297
g8
F4.545454545454545
sg9
F42.0
sg10
I1
sg11
F12580.931322099634
sbag2
(g3
g4
Ntp298
Rp299
(dp300
g8
F4.545454545454545
sg9
F41.0
sg10
I1
sg11
F12585.797812846817
sbag2
(g3
g4
Ntp301
Rp302
(dp303
g8
F4.545454545454545
sg9
F40.0
sg10
I1
sg11
F12590.695617176667
sbaa(lp304
g2
(g3
g4
Ntp305
Rp306
(dp307
g8
F5.909090909090908
sg9
F51.0
sg10
I1
sg11
F12541.38179063993
sbag2
(g3
g4
Ntp308
Rp309
(dp310
g8
F5.909090909090908
sg9
F50.0
sg10
I1
sg11
F12545.90505658761
sbag2
(g3
g4
Ntp311
Rp312
(dp313
g8
F5.909090909090908
sg9
F49.0
sg10
I1
sg11
F12550.511467675211
sbag2
(g3
g4
Ntp314
Rp315
(dp316
g8
F5.909090909090908
sg9
F48.0
sg10
I1
sg11
F12555.199212238416
sbag2
(g3
g4
Ntp317
Rp318
(dp319
g8
F5.909090909090908
sg9
F47.0
sg10
I1
sg11
F12559.965983602628
sbag2
(g3
g4
Ntp320
Rp321
(dp322
g8
F5.909090909090908
sg9
F46.0
sg10
I1
sg11
F12564.808928344522
sbag2
(g3
g4
Ntp323
Rp324
(dp325
g8
F5.909090909090908
sg9
F45.0
sg10
I1
sg11
F12569.724591520557
sbag2
(g3
g4
Ntp326
Rp327
(dp328
g8
F5.909090909090908
sg9
F44.0
sg10
I1
sg11
F12574.708859064322
sbag2
(g3
g4
Ntp329
Rp330
(dp331
g8
F5.909090909090908
sg9
F43.0
sg10
I1
sg11
F12579.756897656544
sbag2
(g3
g4
Ntp332
Rp333
(dp334
g8
F5.909090909090908
sg9
F42.0
sg10
I1
sg11
F12584.86309249256
sbag2
(g3
g4
Ntp335
Rp336
(dp337
g8
F5.909090909090908
sg9
F41.0
sg10
I1
sg11
F12590.020983512033
sbag2
(g3
g4
Ntp338
Rp339
(dp340
g8
F5.909090909090908
sg9
F40.0
sg10
I1
sg11
F12595.223200816796
sbaa(lp341
g2
(g3
g4
Ntp342
Rp343
(dp344
g8
F7.272727272727272
sg9
F51.0
sg10
I1
sg11
F12543.097738168035
sbag2
(g3
g4
Ntp345
Rp346
(dp347
g8
F7.272727272727272
sg9
F50.0
sg10
I1
sg11
F12547.807793920689
sbag2
(g3
g4
Ntp348
Rp349
(dp350
g8
F7.272727272727272
sg9
F49.0
sg10
I1
sg11
F12552.612442163421
sbag2
(g3
g4
Ntp351
Rp352
(dp353
g8
F7.272727272727272
sg9
F48.0
sg10
I1
sg11
F12557.510364482605
sbag2
(g3
g4
Ntp354
Rp355
(dp356
g8
F7.272727272727272
sg9
F47.0
sg10
I1
sg11
F12562.499738042727
sbag2
(g3
g4
Ntp357
Rp358
(dp359
g8
F7.272727272727272
sg9
F46.0
sg10
I1
sg11
F12567.578177431962
sbag2
(g3
g4
Ntp360
Rp361
(dp362
g8
F7.272727272727272
sg9
F45.0
sg10
I1
sg11
F12572.742672431303
sbag2
(g3
g4
Ntp363
Rp364
(dp365
g8
F7.272727272727272
sg9
F44.0
sg10
I1
sg11
F12577.989521818054
sbag2
(g3
g4
Ntp366
Rp367
(dp368
g8
F7.272727272727272
sg9
F43.0
sg10
I1
sg11
F12583.31426342245
sbag2
(g3
g4
Ntp369
Rp370
(dp371
g8
F7.272727272727272
sg9
F42.0
sg10
I1
sg11
F12588.711600788043
sbag2
(g3
g4
Ntp372
Rp373
(dp374
g8
F7.272727272727272
sg9
F41.0
sg10
I1
sg11
F12594.175326943534
sbag2
(g3
g4
Ntp375
Rp376
(dp377
g8
F7.272727272727272
sg9
F40.0
sg10
I1
sg11
F12599.698245978912
sbaa(lp378
g2
(g3
g4
Ntp379
Rp380
(dp381
g8
F8.636363636363635
sg9
F51.0
sg10
I1
sg11
F12544.644559590839
sbag2
(g3
g4
Ntp382
Rp383
(dp384
g8
F8.636363636363635
sg9
F50.0
sg10
I1
sg11
F12549.543495672657
sbag2
(g3
g4
Ntp385
Rp386
(dp387
g8
F8.636363636363635
sg9
F49.0
sg10
I1
sg11
F12554.549338816681
sbag2
(g3
g4
Ntp388
Rp389
(dp390
g8
F8.636363636363635
sg9
F48.0
sg10
I1
sg11
F12559.661366245233
sbag2
(g3
g4
Ntp391
Rp392
(dp393
g8
F8.636363636363635
sg9
F47.0
sg10
I1
sg11
F12564.87834906699
sbag2
(g3
g4
Ntp394
Rp395
(dp396
g8
F8.636363636363635
sg9
F46.0
sg10
I1
sg11
F12570.198487664005
sbag2
(g3
g4
Ntp397
Rp398
(dp399
g8
F8.636363636363635
sg9
F45.0
sg10
I1
sg11
F12575.61934179444
sbag2
(g3
g4
Ntp400
Rp401
(dp402
g8
F8.636363636363635
sg9
F44.0
sg10
I1
sg11
F12581.137755391434
sbag2
(g3
g4
Ntp403
Rp404
(dp405
g8
F8.636363636363635
sg9
F43.0
sg10
I1
sg11
F12586.749776148337
sbag2
(g3
g4
Ntp406
Rp407
(dp408
g8
F8.636363636363635
sg9
F42.0
sg10
I1
sg11
F12592.450570118328
sbag2
(g3
g4
Ntp409
Rp410
(dp411
g8
F8.636363636363635
sg9
F41.0
sg10
I1
sg11
F12598.234331727015
sbag2
(g3
g4
Ntp412
Rp413
(dp414
g8
F8.636363636363635
sg9
F40.0
sg10
I1
sg11
F12604.094189802607
sbaa(lp415
g2
(g3
g4
Ntp416
Rp417
(dp418
g8
F10.0
sg9
F51.0
sg10
I1
sg11
F12546.000990716726
sbag2
(g3
g4
Ntp419
Rp420
(dp421
g8
F10.0
sg9
F50.0
sg10
I1
sg11
F12551.089842736501
sbag2
(g3
g4
Ntp422
Rp423
(dp424
g8
F10.0
sg9
F49.0
sg10
I1
sg11
F12556.29878090651
sbag2
(g3
g4
Ntp425
Rp426
(dp427
g8
F10.0
sg9
F48.0
sg10
I1
sg11
F12561.627790853323
sbag2
(g3
g4
Ntp428
Rp429
(dp430
g8
F10.0
sg9
F47.0
sg10
I1
sg11
F12567.076360160914
sbag2
(g3
g4
Ntp431
Rp432
(dp433
g8
F10.0
sg9
F46.0
sg10
I1
sg11
F12572.643407497015
sbag2
(g3
g4
Ntp434
Rp435
(dp436
g8
F10.0
sg9
F45.0
sg10
I1
sg11
F12578.327205087187
sbag2
(g3
g4
Ntp437
Rp438
(dp439
g8
F10.0
sg9
F44.0
sg10
I1
sg11
F12584.125294340884
sbag2
(g3
g4
Ntp440
Rp441
(dp442
g8
F10.0
sg9
F43.0
sg10
I1
sg11
F12590.03439453758
sbag2
(g3
g4
Ntp443
Rp444
(dp445
g8
F10.0
sg9
F42.0
sg10
I1
sg11
F12596.050304618271
sbag2
(g3
g4
Ntp446
Rp447
(dp448
g8
F10.0
sg9
F41.0
sg10
I1
sg11
F12602.167798303828
sbag2
(g3
g4
Ntp449
Rp450
(dp451
g8
F10.0
sg9
F40.0
sg10
I1
sg11
F12608.380512982632
sbaa.