(lp0
(lp1
ccopy_reg
_reconstructor
p2
(clibPoint
Point_C
p3
c__builtin__
object
p4
Ntp5
Rp6
(dp7
S'y'
p8
F-5.0
sS'x'
p9
F51.0
sS'mu'
p10
I3
sS'val'
p11
F101497.39423083262
sbag2
(g3
g4
Ntp12
Rp13
(dp14
g8
F-5.0
sg9
F50.166666666666664
sg10
I3
sg11
F101497.28346273316
sbag2
(g3
g4
Ntp15
Rp16
(dp17
g8
F-5.0
sg9
F49.333333333333336
sg10
I3
sg11
F101497.17317302109
sbag2
(g3
g4
Ntp18
Rp19
(dp20
g8
F-5.0
sg9
F48.5
sg10
I3
sg11
F101497.06350883903
sbag2
(g3
g4
Ntp21
Rp22
(dp23
g8
F-5.0
sg9
F47.666666666666664
sg10
I3
sg11
F101496.95462643223
sbag2
(g3
g4
Ntp24
Rp25
(dp26
g8
F-5.0
sg9
F46.833333333333336
sg10
I3
sg11
F101496.8466913799
sbag2
(g3
g4
Ntp27
Rp28
(dp29
g8
F-5.0
sg9
F46.0
sg10
I3
sg11
F101496.7398787984
sbag2
(g3
g4
Ntp30
Rp31
(dp32
g8
F-5.0
sg9
F45.166666666666664
sg10
I3
sg11
F101496.63437351135
sbag2
(g3
g4
Ntp33
Rp34
(dp35
g8
F-5.0
sg9
F44.333333333333336
sg10
I3
sg11
F101496.5303701808
sbag2
(g3
g4
Ntp36
Rp37
(dp38
g8
F-5.0
sg9
F43.5
sg10
I3
sg11
F101496.4280733939
sbag2
(g3
g4
Ntp39
Rp40
(dp41
g8
F-5.0
sg9
F42.666666666666664
sg10
I3
sg11
F101496.32769769839
sbag2
(g3
g4
Ntp42
Rp43
(dp44
g8
F-5.0
sg9
F41.83333333333333
sg10
I3
sg11
F101496.22946758062
sbag2
(g3
g4
Ntp45
Rp46
(dp47
g8
F-5.0
sg9
F41.0
sg10
I3
sg11
F101496.13361737806
sbaa(lp48
g2
(g3
g4
Ntp49
Rp50
(dp51
g8
F-3.75
sg9
F51.0
sg10
I3
sg11
F101497.21012489095
sbag2
(g3
g4
Ntp52
Rp53
(dp54
g8
F-3.75
sg9
F50.166666666666664
sg10
I3
sg11
F101497.09258893447
sbag2
(g3
g4
Ntp55
Rp56
(dp57
g8
F-3.75
sg9
F49.333333333333336
sg10
I3
sg11
F101496.97537126568
sbag2
(g3
g4
Ntp58
Rp59
(dp60
g8
F-3.75
sg9
F48.5
sg10
I3
sg11
F101496.85862271323
sbag2
(g3
g4
Ntp61
Rp62
(dp63
g8
F-3.75
sg9
F47.666666666666664
sg10
I3
sg11
F101496.74250412805
sbag2
(g3
g4
Ntp64
Rp65
(dp66
g8
F-3.75
sg9
F46.833333333333336
sg10
I3
sg11
F101496.62718668985
sbag2
(g3
g4
Ntp67
Rp68
(dp69
g8
F-3.75
sg9
F46.0
sg10
I3
sg11
F101496.5128521866
sbag2
(g3
g4
Ntp70
Rp71
(dp72
g8
F-3.75
sg9
F45.166666666666664
sg10
I3
sg11
F101496.39969326253
sbag2
(g3
g4
Ntp73
Rp74
(dp75
g8
F-3.75
sg9
F44.333333333333336
sg10
I3
sg11
F101496.28791362753
sbag2
(g3
g4
Ntp76
Rp77
(dp78
g8
F-3.75
sg9
F43.5
sg10
I3
sg11
F101496.17772822116
sbag2
(g3
g4
Ntp79
Rp80
(dp81
g8
F-3.75
sg9
F42.666666666666664
sg10
I3
sg11
F101496.06936332457
sbag2
(g3
g4
Ntp82
Rp83
(dp84
g8
F-3.75
sg9
F41.83333333333333
sg10
I3
sg11
F101495.96305661173
sbag2
(g3
g4
Ntp85
Rp86
(dp87
g8
F-3.75
sg9
F41.0
sg10
I3
sg11
F101495.85905713306
sbaa(lp88
g2
(g3
g4
Ntp89
Rp90
(dp91
g8
F-2.5
sg9
F51.0
sg10
I3
sg11
F101497.02485144629
sbag2
(g3
g4
Ntp92
Rp93
(dp94
g8
F-2.5
sg9
F50.166666666666664
sg10
I3
sg11
F101496.90020265669
sbag2
(g3
g4
Ntp95
Rp96
(dp97
g8
F-2.5
sg9
F49.333333333333336
sg10
I3
sg11
F101496.7756892744
sbag2
(g3
g4
Ntp98
Rp99
(dp100
g8
F-2.5
sg9
F48.5
sg10
I3
sg11
F101496.65146505408
sbag2
(g3
g4
Ntp101
Rp102
(dp103
g8
F-2.5
sg9
F47.666666666666664
sg10
I3
sg11
F101496.52769474077
sbag2
(g3
g4
Ntp104
Rp105
(dp106
g8
F-2.5
sg9
F46.833333333333336
sg10
I3
sg11
F101496.404554463
sbag2
(g3
g4
Ntp107
Rp108
(dp109
g8
F-2.5
sg9
F46.0
sg10
I3
sg11
F101496.2822321024
sbag2
(g3
g4
Ntp110
Rp111
(dp112
g8
F-2.5
sg9
F45.166666666666664
sg10
I3
sg11
F101496.16092763391
sbag2
(g3
g4
Ntp113
Rp114
(dp115
g8
F-2.5
sg9
F44.333333333333336
sg10
I3
sg11
F101496.0408534285
sbag2
(g3
g4
Ntp116
Rp117
(dp118
g8
F-2.5
sg9
F43.5
sg10
I3
sg11
F101495.92223451169
sbag2
(g3
g4
Ntp119
Rp120
(dp121
g8
F-2.5
sg9
F42.666666666666664
sg10
I3
sg11
F101495.80530876952
sbag2
(g3
g4
Ntp122
Rp123
(dp124
g8
F-2.5
sg9
F41.83333333333333
sg10
I3
sg11
F101495.69032709229
sbag2
(g3
g4
Ntp125
Rp126
(dp127
g8
F-2.5
sg9
F41.0
sg10
I3
sg11
F101495.57755344748
sbaa(lp128
g2
(g3
g4
Ntp129
Rp130
(dp131
g8
F-1.25
sg9
F51.0
sg10
I3
sg11
F101496.83878420251
sbag2
(g3
g4
Ntp132
Rp133
(dp134
g8
F-1.25
sg9
F50.166666666666664
sg10
I3
sg11
F101496.70667070689
sbag2
(g3
g4
Ntp135
Rp136
(dp137
g8
F-1.25
sg9
F49.333333333333336
sg10
I3
sg11
F101496.57448484366
sbag2
(g3
g4
Ntp138
Rp139
(dp140
g8
F-1.25
sg9
F48.5
sg10
I3
sg11
F101496.44238233942
sbag2
(g3
g4
Ntp141
Rp142
(dp143
g8
F-1.25
sg9
F47.666666666666664
sg10
I3
sg11
F101496.31053091933
sbag2
(g3
g4
Ntp144
Rp145
(dp146
g8
F-1.25
sg9
F46.833333333333336
sg10
I3
sg11
F101496.17911080101
sbag2
(g3
g4
Ntp147
Rp148
(dp149
g8
F-1.25
sg9
F46.0
sg10
I3
sg11
F101496.04831516821
sbag2
(g3
g4
Ntp150
Rp151
(dp152
g8
F-1.25
sg9
F45.166666666666664
sg10
I3
sg11
F101495.9183506193
sbag2
(g3
g4
Ntp153
Rp154
(dp155
g8
F-1.25
sg9
F44.333333333333336
sg10
I3
sg11
F101495.78943758122
sbag2
(g3
g4
Ntp156
Rp157
(dp158
g8
F-1.25
sg9
F43.5
sg10
I3
sg11
F101495.66181068114
sbag2
(g3
g4
Ntp159
Rp160
(dp161
g8
F-1.25
sg9
F42.666666666666664
sg10
I3
sg11
F101495.5357190673
sbag2
(g3
g4
Ntp162
Rp163
(dp164
g8
F-1.25
sg9
F41.83333333333333
sg10
I3
sg11
F101495.41142666676
sbag2
(g3
g4
Ntp165
Rp166
(dp167
g8
F-1.25
sg9
F41.0
sg10
I3
sg11
F101495.2892123711
sbaa(lp168
g2
(g3
g4
Ntp169
Rp170
(dp171
g8
F0.0
sg9
F51.0
sg10
I3
sg11
F101496.65234830075
sbag2
(g3
g4
Ntp172
Rp173
(dp174
g8
F0.0
sg9
F50.166666666666664
sg10
I3
sg11
F101496.5124133469
sbag2
(g3
g4
Ntp175
Rp176
(dp177
g8
F0.0
sg9
F49.333333333333336
sg10
I3
sg11
F101496.37217116186
sbag2
(g3
g4
Ntp178
Rp179
(dp180
g8
F0.0
sg9
F48.5
sg10
I3
sg11
F101496.2317782675
sbag2
(g3
g4
Ntp181
Rp182
(dp183
g8
F0.0
sg9
F47.666666666666664
sg10
I3
sg11
F101496.09140422312
sbag2
(g3
g4
Ntp184
Rp185
(dp186
g8
F0.0
sg9
F46.833333333333336
sg10
I3
sg11
F101495.95123223294
sbag2
(g3
g4
Ntp187
Rp188
(dp189
g8
F0.0
sg9
F46.0
sg10
I3
sg11
F101495.81145974052
sbag2
(g3
g4
Ntp190
Rp191
(dp192
g8
F0.0
sg9
F45.166666666666664
sg10
I3
sg11
F101495.67229900269
sbag2
(g3
g4
Ntp193
Rp194
(dp195
g8
F0.0
sg9
F44.333333333333336
sg10
I3
sg11
F101495.53397763395
sbag2
(g3
g4
Ntp196
Rp197
(dp198
g8
F0.0
sg9
F43.5
sg10
I3
sg11
F101495.39673911374
sbag2
(g3
g4
Ntp199
Rp200
(dp201
g8
F0.0
sg9
F42.666666666666664
sg10
I3
sg11
F101495.2608432441
sbag2
(g3
g4
Ntp202
Rp203
(dp204
g8
F0.0
sg9
F41.83333333333333
sg10
I3
sg11
F101495.12656654784
sbag2
(g3
g4
Ntp205
Rp206
(dp207
g8
F0.0
sg9
F41.0
sg10
I3
sg11
F101494.9942025938
sbaa(lp208
g2
(g3
g4
Ntp209
Rp210
(dp211
g8
F1.25
sg9
F51.0
sg10
I3
sg11
F101496.46602468165
sbag2
(g3
g4
Ntp212
Rp213
(dp214
g8
F1.25
sg9
F50.166666666666664
sg10
I3
sg11
F101496.31790911441
sbag2
(g3
g4
Ntp215
Rp216
(dp217
g8
F1.25
sg9
F49.333333333333336
sg10
I3
sg11
F101496.16922211235
sbag2
(g3
g4
Ntp218
Rp219
(dp220
g8
F1.25
sg9
F48.5
sg10
I3
sg11
F101496.02011956523
sbag2
(g3
g4
Ntp221
Rp222
(dp223
g8
F1.25
sg9
F47.666666666666664
sg10
I3
sg11
F101495.8707714546
sbag2
(g3
g4
Ntp224
Rp225
(dp226
g8
F1.25
sg9
F46.833333333333336
sg10
I3
sg11
F101495.7213625898
sbag2
(g3
g4
Ntp227
Rp228
(dp229
g8
F1.25
sg9
F46.0
sg10
I3
sg11
F101495.57209333942
sbag2
(g3
g4
Ntp230
Rp231
(dp232
g8
F1.25
sg9
F45.166666666666664
sg10
I3
sg11
F101495.42318035004
sbag2
(g3
g4
Ntp233
Rp234
(dp235
g8
F1.25
sg9
F44.333333333333336
sg10
I3
sg11
F101495.27485724314
sbag2
(g3
g4
Ntp236
Rp237
(dp238
g8
F1.25
sg9
F43.5
sg10
I3
sg11
F101495.12737528034
sbag2
(g3
g4
Ntp239
Rp240
(dp241
g8
F1.25
sg9
F42.666666666666664
sg10
I3
sg11
F101494.98100398578
sbag2
(g3
g4
Ntp242
Rp243
(dp244
g8
F1.25
sg9
F41.83333333333333
sg10
I3
sg11
F101494.83603171229
sbag2
(g3
g4
Ntp245
Rp246
(dp247
g8
F1.25
sg9
F41.0
sg10
I3
sg11
F101494.69276613799
sbaa(lp248
g2
(g3
g4
Ntp249
Rp250
(dp251
g8
F2.5
sg9
F51.0
sg10
I3
sg11
F101496.28035452058
sbag2
(g3
g4
Ntp252
Rp253
(dp254
g8
F2.5
sg9
F50.166666666666664
sg10
I3
sg11
F101496.12369977361
sbag2
(g3
g4
Ntp255
Rp256
(dp257
g8
F2.5
sg9
F49.333333333333336
sg10
I3
sg11
F101495.9661777717
sbag2
(g3
g4
Ntp258
Rp259
(dp260
g8
F2.5
sg9
F48.5
sg10
I3
sg11
F101495.80794206403
sbag2
(g3
g4
Ntp261
Rp262
(dp263
g8
F2.5
sg9
F47.666666666666664
sg10
I3
sg11
F101495.64916134204
sbag2
(g3
g4
Ntp264
Rp265
(dp266
g8
F2.5
sg9
F46.833333333333336
sg10
I3
sg11
F101495.49002031932
sbag2
(g3
g4
Ntp267
Rp268
(dp269
g8
F2.5
sg9
F46.0
sg10
I3
sg11
F101495.33072061802
sbag2
(g3
g4
Ntp270
Rp271
(dp272
g8
F2.5
sg9
F45.166666666666664
sg10
I3
sg11
F101495.1714816525
sbag2
(g3
g4
Ntp273
Rp274
(dp275
g8
F2.5
sg9
F44.333333333333336
sg10
I3
sg11
F101495.01254150132
sbag2
(g3
g4
Ntp276
Rp277
(dp278
g8
F2.5
sg9
F43.5
sg10
I3
sg11
F101494.8541577575
sbag2
(g3
g4
Ntp279
Rp280
(dp281
g8
F2.5
sg9
F42.666666666666664
sg10
I3
sg11
F101494.69660834403
sbag2
(g3
g4
Ntp282
Rp283
(dp284
g8
F2.5
sg9
F41.83333333333333
sg10
I3
sg11
F101494.54019228088
sbag2
(g3
g4
Ntp285
Rp286
(dp287
g8
F2.5
sg9
F41.0
sg10
I3
sg11
F101494.38523038854
sbaa(lp288
g2
(g3
g4
Ntp289
Rp290
(dp291
g8
F3.75
sg9
F51.0
sg10
I3
sg11
F101496.09594366357
sbag2
(g3
g4
Ntp292
Rp293
(dp294
g8
F3.75
sg9
F50.166666666666664
sg10
I3
sg11
F101495.93039532498
sbag2
(g3
g4
Ntp295
Rp296
(dp297
g8
F3.75
sg9
F49.333333333333336
sg10
I3
sg11
F101495.76365003441
sbag2
(g3
g4
Ntp298
Rp299
(dp300
g8
F3.75
sg9
F48.5
sg10
I3
sg11
F101495.59585697991
sbag2
(g3
g4
Ntp301
Rp302
(dp303
g8
F3.75
sg9
F47.666666666666664
sg10
I3
sg11
F101495.42718151367
sbag2
(g3
g4
Ntp304
Rp305
(dp306
g8
F3.75
sg9
F46.833333333333336
sg10
I3
sg11
F101495.25780619233
sbag2
(g3
g4
Ntp307
Rp308
(dp309
g8
F3.75
sg9
F46.0
sg10
I3
sg11
F101495.08793183521
sbag2
(g3
g4
Ntp310
Rp311
(dp312
g8
F3.75
sg9
F45.166666666666664
sg10
I3
sg11
F101494.91777859446
sbag2
(g3
g4
Ntp313
Rp314
(dp315
g8
F3.75
sg9
F44.333333333333336
sg10
I3
sg11
F101494.74758702648
sbag2
(g3
g4
Ntp316
Rp317
(dp318
g8
F3.75
sg9
F43.5
sg10
I3
sg11
F101494.57761915497
sbag2
(g3
g4
Ntp319
Rp320
(dp321
g8
F3.75
sg9
F42.666666666666664
sg10
I3
sg11
F101494.40815951147
sbag2
(g3
g4
Ntp322
Rp323
(dp324
g8
F3.75
sg9
F41.83333333333333
sg10
I3
sg11
F101494.23951613971
sbag2
(g3
g4
Ntp325
Rp326
(dp327
g8
F3.75
sg9
F41.0
sg10
I3
sg11
F101494.07202154584
sbaa(lp328
g2
(g3
g4
Ntp329
Rp330
(dp331
g8
F5.0
sg9
F51.0
sg10
I3
sg11
F101495.91346697554
sbag2
(g3
g4
Ntp332
Rp333
(dp334
g8
F5.0
sg9
F50.166666666666664
sg10
I3
sg11
F101495.73867898568
sbag2
(g3
g4
Ntp335
Rp336
(dp337
g8
F5.0
sg9
F49.333333333333336
sg10
I3
sg11
F101495.56232827673
sbag2
(g3
g4
Ntp338
Rp339
(dp340
g8
F5.0
sg9
F48.5
sg10
I3
sg11
F101495.38455731182
sbag2
(g3
g4
Ntp341
Rp342
(dp343
g8
F5.0
sg9
F47.666666666666664
sg10
I3
sg11
F101495.20552568306
sbag2
(g3
g4
Ntp344
Rp345
(dp346
g8
F5.0
sg9
F46.833333333333336
sg10
I3
sg11
F101495.02541132524
sbag2
(g3
g4
Ntp347
Rp348
(dp349
g8
F5.0
sg9
F46.0
sg10
I3
sg11
F101494.8444117643
sbag2
(g3
g4
Ntp350
Rp351
(dp352
g8
F5.0
sg9
F45.166666666666664
sg10
I3
sg11
F101494.66274539437
sbag2
(g3
g4
Ntp353
Rp354
(dp355
g8
F5.0
sg9
F44.333333333333336
sg10
I3
sg11
F101494.48065277445
sbag2
(g3
g4
Ntp356
Rp357
(dp358
g8
F5.0
sg9
F43.5
sg10
I3
sg11
F101494.29839793355
sbag2
(g3
g4
Ntp359
Rp360
(dp361
g8
F5.0
sg9
F42.666666666666664
sg10
I3
sg11
F101494.11626967066
sbag2
(g3
g4
Ntp362
Rp363
(dp364
g8
F5.0
sg9
F41.83333333333333
sg10
I3
sg11
F101493.93458283492
sbag2
(g3
g4
Ntp365
Rp366
(dp367
g8
F5.0
sg9
F41.0
sg10
I3
sg11
F101493.75367956751
sbaa(lp368
g2
(g3
g4
Ntp369
Rp370
(dp371
g8
F6.25
sg9
F51.0
sg10
I3
sg11
F101495.73367248941
sbag2
(g3
g4
Ntp372
Rp373
(dp374
g8
F6.25
sg9
F50.166666666666664
sg10
I3
sg11
F101495.54931202582
sbag2
(g3
g4
Ntp375
Rp376
(dp377
g8
F6.25
sg9
F49.333333333333336
sg10
I3
sg11
F101495.36298494242
sbag2
(g3
g4
Ntp378
Rp379
(dp380
g8
F6.25
sg9
F48.5
sg10
I3
sg11
F101495.17482424383
sbag2
(g3
g4
Ntp381
Rp382
(dp383
g8
F6.25
sg9
F47.666666666666664
sg10
I3
sg11
F101494.9849809335
sbag2
(g3
g4
Ntp384
Rp385
(dp386
g8
F6.25
sg9
F46.833333333333336
sg10
I3
sg11
F101494.79362541363
sbag2
(g3
g4
Ntp387
Rp388
(dp389
g8
F6.25
sg9
F46.0
sg10
I3
sg11
F101494.6009489406
sbag2
(g3
g4
Ntp390
Rp391
(dp392
g8
F6.25
sg9
F45.166666666666664
sg10
I3
sg11
F101494.40716512971
sbag2
(g3
g4
Ntp393
Rp394
(dp395
g8
F6.25
sg9
F44.333333333333336
sg10
I3
sg11
F101494.21251150193
sbag2
(g3
g4
Ntp396
Rp397
(dp398
g8
F6.25
sg9
F43.5
sg10
I3
sg11
F101494.01725106074
sbag2
(g3
g4
Ntp399
Rp400
(dp401
g8
F6.25
sg9
F42.666666666666664
sg10
I3
sg11
F101493.82167388774
sbag2
(g3
g4
Ntp402
Rp403
(dp404
g8
F6.25
sg9
F41.83333333333333
sg10
I3
sg11
F101493.62609874038
sbag2
(g3
g4
Ntp405
Rp406
(dp407
g8
F6.25
sg9
F41.0
sg10
I3
sg11
F101493.43087463363
sbaa(lp408
g2
(g3
g4
Ntp409
Rp410
(dp411
g8
F7.5
sg9
F51.0
sg10
I3
sg11
F101495.55738522185
sbag2
(g3
g4
Ntp412
Rp413
(dp414
g8
F7.5
sg9
F50.166666666666664
sg10
I3
sg11
F101495.36313832142
sbag2
(g3
g4
Ntp415
Rp416
(dp417
g8
F7.5
sg9
F49.333333333333336
sg10
I3
sg11
F101495.16648091057
sbag2
(g3
g4
Ntp418
Rp419
(dp420
g8
F7.5
sg9
F48.5
sg10
I3
sg11
F101494.96753340604
sbag2
(g3
g4
Ntp421
Rp422
(dp423
g8
F7.5
sg9
F47.666666666666664
sg10
I3
sg11
F101494.76643495461
sbag2
(g3
g4
Ntp424
Rp425
(dp426
g8
F7.5
sg9
F46.833333333333336
sg10
I3
sg11
F101494.56334502935
sbag2
(g3
g4
Ntp427
Rp428
(dp429
g8
F7.5
sg9
F46.0
sg10
I3
sg11
F101494.35844510618
sbag2
(g3
g4
Ntp430
Rp431
(dp432
g8
F7.5
sg9
F45.166666666666664
sg10
I3
sg11
F101494.15194041532
sbag2
(g3
g4
Ntp433
Rp434
(dp435
g8
F7.5
sg9
F44.333333333333336
sg10
I3
sg11
F101493.94406176105
sbag2
(g3
g4
Ntp436
Rp437
(dp438
g8
F7.5
sg9
F43.5
sg10
I3
sg11
F101493.73506740085
sbag2
(g3
g4
Ntp439
Rp440
(dp441
g8
F7.5
sg9
F42.666666666666664
sg10
I3
sg11
F101493.52524497212
sbag2
(g3
g4
Ntp442
Rp443
(dp444
g8
F7.5
sg9
F41.83333333333333
sg10
I3
sg11
F101493.31491345073
sbag2
(g3
g4
Ntp445
Rp446
(dp447
g8
F7.5
sg9
F41.0
sg10
I3
sg11
F101493.10442512344
sbaa(lp448
g2
(g3
g4
Ntp449
Rp450
(dp451
g8
F8.75
sg9
F51.0
sg10
I3
sg11
F101495.38551049643
sbag2
(g3
g4
Ntp452
Rp453
(dp454
g8
F8.75
sg9
F50.166666666666664
sg10
I3
sg11
F101495.18108845672
sbag2
(g3
g4
Ntp455
Rp456
(dp457
g8
F8.75
sg9
F49.333333333333336
sg10
I3
sg11
F101494.97377046611
sbag2
(g3
g4
Ntp458
Rp459
(dp460
g8
F8.75
sg9
F48.5
sg10
I3
sg11
F101494.76366081007
sbag2
(g3
g4
Ntp461
Rp462
(dp463
g8
F8.75
sg9
F47.666666666666664
sg10
I3
sg11
F101494.55088304443
sbag2
(g3
g4
Ntp464
Rp465
(dp466
g8
F8.75
sg9
F46.833333333333336
sg10
I3
sg11
F101494.33558179488
sbag2
(g3
g4
Ntp467
Rp468
(dp469
g8
F8.75
sg9
F46.0
sg10
I3
sg11
F101494.11792466522
sbag2
(g3
g4
Ntp470
Rp471
(dp472
g8
F8.75
sg9
F45.166666666666664
sg10
I3
sg11
F101493.89810425045
sbag2
(g3
g4
Ntp473
Rp474
(dp475
g8
F8.75
sg9
F44.333333333333336
sg10
I3
sg11
F101493.67634025126
sbag2
(g3
g4
Ntp476
Rp477
(dp478
g8
F8.75
sg9
F43.5
sg10
I3
sg11
F101493.45288168245
sbag2
(g3
g4
Ntp479
Rp480
(dp481
g8
F8.75
sg9
F42.666666666666664
sg10
I3
sg11
F101493.2280091652
sbag2
(g3
g4
Ntp482
Rp483
(dp484
g8
F8.75
sg9
F41.83333333333333
sg10
I3
sg11
F101493.00203728996
sbag2
(g3
g4
Ntp485
Rp486
(dp487
g8
F8.75
sg9
F41.0
sg10
I3
sg11
F101492.775317032
sbaa(lp488
g2
(g3
g4
Ntp489
Rp490
(dp491
g8
F10.0
sg9
F51.0
sg10
I3
sg11
F101495.21903658732
sbag2
(g3
g4
Ntp492
Rp493
(dp494
g8
F10.0
sg9
F50.166666666666664
sg10
I3
sg11
F101495.0041831746
sbag2
(g3
g4
Ntp495
Rp496
(dp497
g8
F10.0
sg9
F49.333333333333336
sg10
I3
sg11
F101494.78590566255
sbag2
(g3
g4
Ntp498
Rp499
(dp500
g8
F10.0
sg9
F48.5
sg10
I3
sg11
F101494.56428823691
sbag2
(g3
g4
Ntp501
Rp502
(dp503
g8
F10.0
sg9
F47.666666666666664
sg10
I3
sg11
F101494.33943464328
sbag2
(g3
g4
Ntp504
Rp505
(dp506
g8
F10.0
sg9
F46.833333333333336
sg10
I3
sg11
F101494.11147019193
sbag2
(g3
g4
Ntp507
Rp508
(dp509
g8
F10.0
sg9
F46.0
sg10
I3
sg11
F101493.8805439025
sbag2
(g3
g4
Ntp510
Rp511
(dp512
g8
F10.0
sg9
F45.166666666666664
sg10
I3
sg11
F101493.64683078925
sbag2
(g3
g4
Ntp513
Rp514
(dp515
g8
F10.0
sg9
F44.333333333333336
sg10
I3
sg11
F101493.41053428625
sbag2
(g3
g4
Ntp516
Rp517
(dp518
g8
F10.0
sg9
F43.5
sg10
I3
sg11
F101493.17188880828
sbag2
(g3
g4
Ntp519
Rp520
(dp521
g8
F10.0
sg9
F42.666666666666664
sg10
I3
sg11
F101492.93116244006
sbag2
(g3
g4
Ntp522
Rp523
(dp524
g8
F10.0
sg9
F41.83333333333333
sg10
I3
sg11
F101492.6886597439
sbag2
(g3
g4
Ntp525
Rp526
(dp527
g8
F10.0
sg9
F41.0
sg10
I3
sg11
F101492.44472466932
sbaa.