(lp0
(lp1
ccopy_reg
_reconstructor
p2
(clibPoint
Point_C
p3
c__builtin__
object
p4
Ntp5
Rp6
(dp7
S'y'
p8
F51.0
sS'x'
p9
F-5.0
sS'mu'
p10
I2
sS'val'
p11
F278.3210942935383
sbag2
(g3
g4
Ntp12
Rp13
(dp14
g8
F51.0
sg9
F-3.6363636363636367
sg10
I2
sg11
F278.1238102147759
sbag2
(g3
g4
Ntp15
Rp16
(dp17
g8
F51.0
sg9
F-2.272727272727273
sg10
I2
sg11
F277.74284449490295
sbag2
(g3
g4
Ntp18
Rp19
(dp20
g8
F51.0
sg9
F-0.9090909090909092
sg10
I2
sg11
F277.32065140473054
sbag2
(g3
g4
Ntp21
Rp22
(dp23
g8
F51.0
sg9
F0.45454545454545414
sg10
I2
sg11
F276.81429856978195
sbag2
(g3
g4
Ntp24
Rp25
(dp26
g8
F51.0
sg9
F1.8181818181818175
sg10
I2
sg11
F276.1451327058621
sbag2
(g3
g4
Ntp27
Rp28
(dp29
g8
F51.0
sg9
F3.1818181818181817
sg10
I2
sg11
F275.4116107546884
sbag2
(g3
g4
Ntp30
Rp31
(dp32
g8
F51.0
sg9
F4.545454545454545
sg10
I2
sg11
F276.82642730147984
sbag2
(g3
g4
Ntp33
Rp34
(dp35
g8
F51.0
sg9
F5.909090909090908
sg10
I2
sg11
F277.2848996497378
sbag2
(g3
g4
Ntp36
Rp37
(dp38
g8
F51.0
sg9
F7.272727272727272
sg10
I2
sg11
F277.546515237425
sbag2
(g3
g4
Ntp39
Rp40
(dp41
g8
F51.0
sg9
F8.636363636363635
sg10
I2
sg11
F277.8023586689308
sbag2
(g3
g4
Ntp42
Rp43
(dp44
g8
F51.0
sg9
F10.0
sg10
I2
sg11
F278.06621898159904
sbaa(lp45
g2
(g3
g4
Ntp46
Rp47
(dp48
g8
F50.09090909090909
sg9
F-5.0
sg10
I2
sg11
F278.6359187898139
sbag2
(g3
g4
Ntp49
Rp50
(dp51
g8
F50.09090909090909
sg9
F-3.6363636363636367
sg10
I2
sg11
F278.44652607090393
sbag2
(g3
g4
Ntp52
Rp53
(dp54
g8
F50.09090909090909
sg9
F-2.272727272727273
sg10
I2
sg11
F277.78462893526614
sbag2
(g3
g4
Ntp55
Rp56
(dp57
g8
F50.09090909090909
sg9
F-0.9090909090909092
sg10
I2
sg11
F277.2099653163633
sbag2
(g3
g4
Ntp58
Rp59
(dp60
g8
F50.09090909090909
sg9
F0.45454545454545414
sg10
I2
sg11
F276.63220686649254
sbag2
(g3
g4
Ntp61
Rp62
(dp63
g8
F50.09090909090909
sg9
F1.8181818181818175
sg10
I2
sg11
F275.06498720814074
sbag2
(g3
g4
Ntp64
Rp65
(dp66
g8
F50.09090909090909
sg9
F3.1818181818181817
sg10
I2
sg11
F275.7504179918956
sbag2
(g3
g4
Ntp67
Rp68
(dp69
g8
F50.09090909090909
sg9
F4.545454545454545
sg10
I2
sg11
F276.8947900928619
sbag2
(g3
g4
Ntp70
Rp71
(dp72
g8
F50.09090909090909
sg9
F5.909090909090908
sg10
I2
sg11
F277.1605890500899
sbag2
(g3
g4
Ntp73
Rp74
(dp75
g8
F50.09090909090909
sg9
F7.272727272727272
sg10
I2
sg11
F277.4359814035073
sbag2
(g3
g4
Ntp76
Rp77
(dp78
g8
F50.09090909090909
sg9
F8.636363636363635
sg10
I2
sg11
F277.74662864690464
sbag2
(g3
g4
Ntp79
Rp80
(dp81
g8
F50.09090909090909
sg9
F10.0
sg10
I2
sg11
F278.1030847661923
sbaa(lp82
g2
(g3
g4
Ntp83
Rp84
(dp85
g8
F49.18181818181818
sg9
F-5.0
sg10
I2
sg11
F279.17684617642783
sbag2
(g3
g4
Ntp86
Rp87
(dp88
g8
F49.18181818181818
sg9
F-3.6363636363636367
sg10
I2
sg11
F279.0880078064291
sbag2
(g3
g4
Ntp89
Rp90
(dp91
g8
F49.18181818181818
sg9
F-2.272727272727273
sg10
I2
sg11
F277.8867376298835
sbag2
(g3
g4
Ntp92
Rp93
(dp94
g8
F49.18181818181818
sg9
F-0.9090909090909092
sg10
I2
sg11
F276.8684728833633
sbag2
(g3
g4
Ntp95
Rp96
(dp97
g8
F49.18181818181818
sg9
F0.45454545454545414
sg10
I2
sg11
F276.5730966513959
sbag2
(g3
g4
Ntp98
Rp99
(dp100
g8
F49.18181818181818
sg9
F1.8181818181818175
sg10
I2
sg11
F276.64887539851617
sbag2
(g3
g4
Ntp101
Rp102
(dp103
g8
F49.18181818181818
sg9
F3.1818181818181817
sg10
I2
sg11
F277.0386641111256
sbag2
(g3
g4
Ntp104
Rp105
(dp106
g8
F49.18181818181818
sg9
F4.545454545454545
sg10
I2
sg11
F276.8970202879316
sbag2
(g3
g4
Ntp107
Rp108
(dp109
g8
F49.18181818181818
sg9
F5.909090909090908
sg10
I2
sg11
F276.53879631927146
sbag2
(g3
g4
Ntp110
Rp111
(dp112
g8
F49.18181818181818
sg9
F7.272727272727272
sg10
I2
sg11
F277.2476344452265
sbag2
(g3
g4
Ntp113
Rp114
(dp115
g8
F49.18181818181818
sg9
F8.636363636363635
sg10
I2
sg11
F277.644917328688
sbag2
(g3
g4
Ntp116
Rp117
(dp118
g8
F49.18181818181818
sg9
F10.0
sg10
I2
sg11
F278.18025955253944
sbaa(lp119
g2
(g3
g4
Ntp120
Rp121
(dp122
g8
F48.27272727272727
sg9
F-5.0
sg10
I2
sg11
F279.56099195240193
sbag2
(g3
g4
Ntp123
Rp124
(dp125
g8
F48.27272727272727
sg9
F-3.6363636363636367
sg10
I2
sg11
F279.25301805260665
sbag2
(g3
g4
Ntp126
Rp127
(dp128
g8
F48.27272727272727
sg9
F-2.272727272727273
sg10
I2
sg11
F277.8581098815892
sbag2
(g3
g4
Ntp129
Rp130
(dp131
g8
F48.27272727272727
sg9
F-0.9090909090909092
sg10
I2
sg11
F277.2001422691192
sbag2
(g3
g4
Ntp132
Rp133
(dp134
g8
F48.27272727272727
sg9
F0.45454545454545414
sg10
I2
sg11
F276.56181979504373
sbag2
(g3
g4
Ntp135
Rp136
(dp137
g8
F48.27272727272727
sg9
F1.8181818181818175
sg10
I2
sg11
F277.1770433977038
sbag2
(g3
g4
Ntp138
Rp139
(dp140
g8
F48.27272727272727
sg9
F3.1818181818181817
sg10
I2
sg11
F277.4133195482559
sbag2
(g3
g4
Ntp141
Rp142
(dp143
g8
F48.27272727272727
sg9
F4.545454545454545
sg10
I2
sg11
F277.5353727488107
sbag2
(g3
g4
Ntp144
Rp145
(dp146
g8
F48.27272727272727
sg9
F5.909090909090908
sg10
I2
sg11
F276.09137519946694
sbag2
(g3
g4
Ntp147
Rp148
(dp149
g8
F48.27272727272727
sg9
F7.272727272727272
sg10
I2
sg11
F277.2172886895921
sbag2
(g3
g4
Ntp150
Rp151
(dp152
g8
F48.27272727272727
sg9
F8.636363636363635
sg10
I2
sg11
F277.676311458016
sbag2
(g3
g4
Ntp153
Rp154
(dp155
g8
F48.27272727272727
sg9
F10.0
sg10
I2
sg11
F278.3588655801459
sbaa(lp156
g2
(g3
g4
Ntp157
Rp158
(dp159
g8
F47.36363636363637
sg9
F-5.0
sg10
I2
sg11
F279.06659210248074
sbag2
(g3
g4
Ntp160
Rp161
(dp162
g8
F47.36363636363637
sg9
F-3.6363636363636367
sg10
I2
sg11
F280.11280800025065
sbag2
(g3
g4
Ntp163
Rp164
(dp165
g8
F47.36363636363637
sg9
F-2.272727272727273
sg10
I2
sg11
F278.09383297309813
sbag2
(g3
g4
Ntp166
Rp167
(dp168
g8
F47.36363636363637
sg9
F-0.9090909090909092
sg10
I2
sg11
F277.41723980433466
sbag2
(g3
g4
Ntp169
Rp170
(dp171
g8
F47.36363636363637
sg9
F0.45454545454545414
sg10
I2
sg11
F276.9827099912869
sbag2
(g3
g4
Ntp172
Rp173
(dp174
g8
F47.36363636363637
sg9
F1.8181818181818175
sg10
I2
sg11
F277.1814564626097
sbag2
(g3
g4
Ntp175
Rp176
(dp177
g8
F47.36363636363637
sg9
F3.1818181818181817
sg10
I2
sg11
F277.44096818127804
sbag2
(g3
g4
Ntp178
Rp179
(dp180
g8
F47.36363636363637
sg9
F4.545454545454545
sg10
I2
sg11
F277.74672229603516
sbag2
(g3
g4
Ntp181
Rp182
(dp183
g8
F47.36363636363637
sg9
F5.909090909090908
sg10
I2
sg11
F277.72980795876055
sbag2
(g3
g4
Ntp184
Rp185
(dp186
g8
F47.36363636363637
sg9
F7.272727272727272
sg10
I2
sg11
F277.3624767655263
sbag2
(g3
g4
Ntp187
Rp188
(dp189
g8
F47.36363636363637
sg9
F8.636363636363635
sg10
I2
sg11
F278.0518293687431
sbag2
(g3
g4
Ntp190
Rp191
(dp192
g8
F47.36363636363637
sg9
F10.0
sg10
I2
sg11
F278.70994966199004
sbaa(lp193
g2
(g3
g4
Ntp194
Rp195
(dp196
g8
F46.45454545454545
sg9
F-5.0
sg10
I2
sg11
F278.71854459358616
sbag2
(g3
g4
Ntp197
Rp198
(dp199
g8
F46.45454545454545
sg9
F-3.6363636363636367
sg10
I2
sg11
F279.0983827711963
sbag2
(g3
g4
Ntp200
Rp201
(dp202
g8
F46.45454545454545
sg9
F-2.272727272727273
sg10
I2
sg11
F278.1751746832043
sbag2
(g3
g4
Ntp203
Rp204
(dp205
g8
F46.45454545454545
sg9
F-0.9090909090909092
sg10
I2
sg11
F277.80553331699224
sbag2
(g3
g4
Ntp206
Rp207
(dp208
g8
F46.45454545454545
sg9
F0.45454545454545414
sg10
I2
sg11
F276.8191379226628
sbag2
(g3
g4
Ntp209
Rp210
(dp211
g8
F46.45454545454545
sg9
F1.8181818181818175
sg10
I2
sg11
F277.0634123995364
sbag2
(g3
g4
Ntp212
Rp213
(dp214
g8
F46.45454545454545
sg9
F3.1818181818181817
sg10
I2
sg11
F277.33885950869984
sbag2
(g3
g4
Ntp215
Rp216
(dp217
g8
F46.45454545454545
sg9
F4.545454545454545
sg10
I2
sg11
F278.08977804218034
sbag2
(g3
g4
Ntp218
Rp219
(dp220
g8
F46.45454545454545
sg9
F5.909090909090908
sg10
I2
sg11
F278.46982609295026
sbag2
(g3
g4
Ntp221
Rp222
(dp223
g8
F46.45454545454545
sg9
F7.272727272727272
sg10
I2
sg11
F278.5856599621191
sbag2
(g3
g4
Ntp224
Rp225
(dp226
g8
F46.45454545454545
sg9
F8.636363636363635
sg10
I2
sg11
F278.87502224047597
sbag2
(g3
g4
Ntp227
Rp228
(dp229
g8
F46.45454545454545
sg9
F10.0
sg10
I2
sg11
F279.2677810250729
sbaa(lp230
g2
(g3
g4
Ntp231
Rp232
(dp233
g8
F45.54545454545455
sg9
F-5.0
sg10
I2
sg11
F278.4517627161379
sbag2
(g3
g4
Ntp234
Rp235
(dp236
g8
F45.54545454545455
sg9
F-3.6363636363636367
sg10
I2
sg11
F278.4155413879706
sbag2
(g3
g4
Ntp237
Rp238
(dp239
g8
F45.54545454545455
sg9
F-2.272727272727273
sg10
I2
sg11
F278.1432352969943
sbag2
(g3
g4
Ntp240
Rp241
(dp242
g8
F45.54545454545455
sg9
F-0.9090909090909092
sg10
I2
sg11
F278.02114582729513
sbag2
(g3
g4
Ntp243
Rp244
(dp245
g8
F45.54545454545455
sg9
F0.45454545454545414
sg10
I2
sg11
F277.08233898918274
sbag2
(g3
g4
Ntp246
Rp247
(dp248
g8
F45.54545454545455
sg9
F1.8181818181818175
sg10
I2
sg11
F276.9106460768768
sbag2
(g3
g4
Ntp249
Rp250
(dp251
g8
F45.54545454545455
sg9
F3.1818181818181817
sg10
I2
sg11
F276.9263719009572
sbag2
(g3
g4
Ntp252
Rp253
(dp254
g8
F45.54545454545455
sg9
F4.545454545454545
sg10
I2
sg11
F278.478201025075
sbag2
(g3
g4
Ntp255
Rp256
(dp257
g8
F45.54545454545455
sg9
F5.909090909090908
sg10
I2
sg11
F279.3316333008262
sbag2
(g3
g4
Ntp258
Rp259
(dp260
g8
F45.54545454545455
sg9
F7.272727272727272
sg10
I2
sg11
F279.9066240935545
sbag2
(g3
g4
Ntp261
Rp262
(dp263
g8
F45.54545454545455
sg9
F8.636363636363635
sg10
I2
sg11
F279.9528190019663
sbag2
(g3
g4
Ntp264
Rp265
(dp266
g8
F45.54545454545455
sg9
F10.0
sg10
I2
sg11
F280.02512033757773
sbaa(lp267
g2
(g3
g4
Ntp268
Rp269
(dp270
g8
F44.63636363636364
sg9
F-5.0
sg10
I2
sg11
F278.28369754989745
sbag2
(g3
g4
Ntp271
Rp272
(dp273
g8
F44.63636363636364
sg9
F-3.6363636363636367
sg10
I2
sg11
F278.1864268649897
sbag2
(g3
g4
Ntp274
Rp275
(dp276
g8
F44.63636363636364
sg9
F-2.272727272727273
sg10
I2
sg11
F278.03116813649973
sbag2
(g3
g4
Ntp277
Rp278
(dp279
g8
F44.63636363636364
sg9
F-0.9090909090909092
sg10
I2
sg11
F278.2660316647377
sbag2
(g3
g4
Ntp280
Rp281
(dp282
g8
F44.63636363636364
sg9
F0.45454545454545414
sg10
I2
sg11
F277.43314831007615
sbag2
(g3
g4
Ntp283
Rp284
(dp285
g8
F44.63636363636364
sg9
F1.8181818181818175
sg10
I2
sg11
F276.8509817589286
sbag2
(g3
g4
Ntp286
Rp287
(dp288
g8
F44.63636363636364
sg9
F3.1818181818181817
sg10
I2
sg11
F277.00263217903654
sbag2
(g3
g4
Ntp289
Rp290
(dp291
g8
F44.63636363636364
sg9
F4.545454545454545
sg10
I2
sg11
F280.55613149897215
sbag2
(g3
g4
Ntp292
Rp293
(dp294
g8
F44.63636363636364
sg9
F5.909090909090908
sg10
I2
sg11
F280.5646038474668
sbag2
(g3
g4
Ntp295
Rp296
(dp297
g8
F44.63636363636364
sg9
F7.272727272727272
sg10
I2
sg11
F281.3797206468468
sbag2
(g3
g4
Ntp298
Rp299
(dp300
g8
F44.63636363636364
sg9
F8.636363636363635
sg10
I2
sg11
F281.16647524420836
sbag2
(g3
g4
Ntp301
Rp302
(dp303
g8
F44.63636363636364
sg9
F10.0
sg10
I2
sg11
F281.0074401350124
sbaa(lp304
g2
(g3
g4
Ntp305
Rp306
(dp307
g8
F43.72727272727273
sg9
F-5.0
sg10
I2
sg11
F278.1968445887878
sbag2
(g3
g4
Ntp308
Rp309
(dp310
g8
F43.72727272727273
sg9
F-3.6363636363636367
sg10
I2
sg11
F278.09767252318926
sbag2
(g3
g4
Ntp311
Rp312
(dp313
g8
F43.72727272727273
sg9
F-2.272727272727273
sg10
I2
sg11
F277.9566300756237
sbag2
(g3
g4
Ntp314
Rp315
(dp316
g8
F43.72727272727273
sg9
F-0.9090909090909092
sg10
I2
sg11
F277.9066823081112
sbag2
(g3
g4
Ntp317
Rp318
(dp319
g8
F43.72727272727273
sg9
F0.45454545454545414
sg10
I2
sg11
F277.4682124354022
sbag2
(g3
g4
Ntp320
Rp321
(dp322
g8
F43.72727272727273
sg9
F1.8181818181818175
sg10
I2
sg11
F277.89046825998395
sbag2
(g3
g4
Ntp323
Rp324
(dp325
g8
F43.72727272727273
sg9
F3.1818181818181817
sg10
I2
sg11
F277.5094273376096
sbag2
(g3
g4
Ntp326
Rp327
(dp328
g8
F43.72727272727273
sg9
F4.545454545454545
sg10
I2
sg11
F281.18718450681604
sbag2
(g3
g4
Ntp329
Rp330
(dp331
g8
F43.72727272727273
sg9
F5.909090909090908
sg10
I2
sg11
F282.4329822095541
sbag2
(g3
g4
Ntp332
Rp333
(dp334
g8
F43.72727272727273
sg9
F7.272727272727272
sg10
I2
sg11
F285.31715300150876
sbag2
(g3
g4
Ntp335
Rp336
(dp337
g8
F43.72727272727273
sg9
F8.636363636363635
sg10
I2
sg11
F282.41321258107484
sbag2
(g3
g4
Ntp338
Rp339
(dp340
g8
F43.72727272727273
sg9
F10.0
sg10
I2
sg11
F282.40324064168175
sbaa(lp341
g2
(g3
g4
Ntp342
Rp343
(dp344
g8
F42.81818181818182
sg9
F-5.0
sg10
I2
sg11
F278.16261575349006
sbag2
(g3
g4
Ntp345
Rp346
(dp347
g8
F42.81818181818182
sg9
F-3.6363636363636367
sg10
I2
sg11
F278.0731651232689
sbag2
(g3
g4
Ntp348
Rp349
(dp350
g8
F42.81818181818182
sg9
F-2.272727272727273
sg10
I2
sg11
F277.9304461846943
sbag2
(g3
g4
Ntp351
Rp352
(dp353
g8
F42.81818181818182
sg9
F-0.9090909090909092
sg10
I2
sg11
F277.54225551572347
sbag2
(g3
g4
Ntp354
Rp355
(dp356
g8
F42.81818181818182
sg9
F0.45454545454545414
sg10
I2
sg11
F277.389911125459
sbag2
(g3
g4
Ntp357
Rp358
(dp359
g8
F42.81818181818182
sg9
F1.8181818181818175
sg10
I2
sg11
F278.3601184036852
sbag2
(g3
g4
Ntp360
Rp361
(dp362
g8
F42.81818181818182
sg9
F3.1818181818181817
sg10
I2
sg11
F280.19447568008064
sbag2
(g3
g4
Ntp363
Rp364
(dp365
g8
F42.81818181818182
sg9
F4.545454545454545
sg10
I2
sg11
F281.1984295093727
sbag2
(g3
g4
Ntp366
Rp367
(dp368
g8
F42.81818181818182
sg9
F5.909090909090908
sg10
I2
sg11
F284.1611847920077
sbag2
(g3
g4
Ntp369
Rp370
(dp371
g8
F42.81818181818182
sg9
F7.272727272727272
sg10
I2
sg11
F283.05941462526647
sbag2
(g3
g4
Ntp372
Rp373
(dp374
g8
F42.81818181818182
sg9
F8.636363636363635
sg10
I2
sg11
F283.65170010164945
sbag2
(g3
g4
Ntp375
Rp376
(dp377
g8
F42.81818181818182
sg9
F10.0
sg10
I2
sg11
F284.1593162613232
sbaa(lp378
g2
(g3
g4
Ntp379
Rp380
(dp381
g8
F41.90909090909091
sg9
F-5.0
sg10
I2
sg11
F278.16256225515457
sbag2
(g3
g4
Ntp382
Rp383
(dp384
g8
F41.90909090909091
sg9
F-3.6363636363636367
sg10
I2
sg11
F278.09132274152347
sbag2
(g3
g4
Ntp385
Rp386
(dp387
g8
F41.90909090909091
sg9
F-2.272727272727273
sg10
I2
sg11
F277.982612792574
sbag2
(g3
g4
Ntp388
Rp389
(dp390
g8
F41.90909090909091
sg9
F-0.9090909090909092
sg10
I2
sg11
F277.8018366476846
sbag2
(g3
g4
Ntp391
Rp392
(dp393
g8
F41.90909090909091
sg9
F0.45454545454545414
sg10
I2
sg11
F277.9113746332064
sbag2
(g3
g4
Ntp394
Rp395
(dp396
g8
F41.90909090909091
sg9
F1.8181818181818175
sg10
I2
sg11
F278.62042547851723
sbag2
(g3
g4
Ntp397
Rp398
(dp399
g8
F41.90909090909091
sg9
F3.1818181818181817
sg10
I2
sg11
F279.657917474818
sbag2
(g3
g4
Ntp400
Rp401
(dp402
g8
F41.90909090909091
sg9
F4.545454545454545
sg10
I2
sg11
F280.5584579401051
sbag2
(g3
g4
Ntp403
Rp404
(dp405
g8
F41.90909090909091
sg9
F5.909090909090908
sg10
I2
sg11
F281.824934135934
sbag2
(g3
g4
Ntp406
Rp407
(dp408
g8
F41.90909090909091
sg9
F7.272727272727272
sg10
I2
sg11
F282.34839349298124
sbag2
(g3
g4
Ntp409
Rp410
(dp411
g8
F41.90909090909091
sg9
F8.636363636363635
sg10
I2
sg11
F284.9426792003035
sbag2
(g3
g4
Ntp412
Rp413
(dp414
g8
F41.90909090909091
sg9
F10.0
sg10
I2
sg11
F283.87839178545363
sbaa(lp415
g2
(g3
g4
Ntp416
Rp417
(dp418
g8
F41.0
sg9
F-5.0
sg10
I2
sg11
F278.18494193651605
sbag2
(g3
g4
Ntp419
Rp420
(dp421
g8
F41.0
sg9
F-3.6363636363636367
sg10
I2
sg11
F278.1379933658448
sbag2
(g3
g4
Ntp422
Rp423
(dp424
g8
F41.0
sg9
F-2.272727272727273
sg10
I2
sg11
F278.0821279439739
sbag2
(g3
g4
Ntp425
Rp426
(dp427
g8
F41.0
sg9
F-0.9090909090909092
sg10
I2
sg11
F278.0518067209705
sbag2
(g3
g4
Ntp428
Rp429
(dp430
g8
F41.0
sg9
F0.45454545454545414
sg10
I2
sg11
F278.2139019954381
sbag2
(g3
g4
Ntp431
Rp432
(dp433
g8
F41.0
sg9
F1.8181818181818175
sg10
I2
sg11
F278.70102147189885
sbag2
(g3
g4
Ntp434
Rp435
(dp436
g8
F41.0
sg9
F3.1818181818181817
sg10
I2
sg11
F279.3799038535881
sbag2
(g3
g4
Ntp437
Rp438
(dp439
g8
F41.0
sg9
F4.545454545454545
sg10
I2
sg11
F280.15327266771897
sbag2
(g3
g4
Ntp440
Rp441
(dp442
g8
F41.0
sg9
F5.909090909090908
sg10
I2
sg11
F280.99525473980316
sbag2
(g3
g4
Ntp443
Rp444
(dp445
g8
F41.0
sg9
F7.272727272727272
sg10
I2
sg11
F281.8455040582882
sbag2
(g3
g4
Ntp446
Rp447
(dp448
g8
F41.0
sg9
F8.636363636363635
sg10
I2
sg11
F283.33548061481406
sbag2
(g3
g4
Ntp449
Rp450
(dp451
g8
F41.0
sg9
F10.0
sg10
I2
sg11
F282.86222730637803
sbaa.